
CANShield_2017.elf:     file format elf32-avr

Sections:
Idx Name          Size      VMA       LMA       File off  Algn
  0 .data         000000a8  00800100  000012e4  00001378  2**0
                  CONTENTS, ALLOC, LOAD, DATA
  1 .text         000012e4  00000000  00000000  00000094  2**1
                  CONTENTS, ALLOC, LOAD, READONLY, CODE
  2 .bss          000001d7  008001a8  008001a8  00001420  2**0
                  ALLOC
  3 .comment      0000005c  00000000  00000000  00001420  2**0
                  CONTENTS, READONLY
  4 .note.gnu.avr.deviceinfo 0000003c  00000000  00000000  0000147c  2**2
                  CONTENTS, READONLY
  5 .debug_aranges 000000a0  00000000  00000000  000014b8  2**0
                  CONTENTS, READONLY, DEBUGGING
  6 .debug_info   00000a2c  00000000  00000000  00001558  2**0
                  CONTENTS, READONLY, DEBUGGING
  7 .debug_abbrev 0000054a  00000000  00000000  00001f84  2**0
                  CONTENTS, READONLY, DEBUGGING
  8 .debug_line   00000819  00000000  00000000  000024ce  2**0
                  CONTENTS, READONLY, DEBUGGING
  9 .debug_frame  000001bc  00000000  00000000  00002ce8  2**2
                  CONTENTS, READONLY, DEBUGGING
 10 .debug_str    000003aa  00000000  00000000  00002ea4  2**0
                  CONTENTS, READONLY, DEBUGGING
 11 .debug_loc    0000073d  00000000  00000000  0000324e  2**0
                  CONTENTS, READONLY, DEBUGGING
 12 .debug_ranges 000000a0  00000000  00000000  0000398b  2**0
                  CONTENTS, READONLY, DEBUGGING

Disassembly of section .text:

00000000 <__vectors>:
       0:	49 c0       	rjmp	.+146    	; 0x94 <__ctors_end>
       2:	00 00       	nop
       4:	63 c0       	rjmp	.+198    	; 0xcc <__bad_interrupt>
       6:	00 00       	nop
       8:	61 c0       	rjmp	.+194    	; 0xcc <__bad_interrupt>
       a:	00 00       	nop
       c:	5f c0       	rjmp	.+190    	; 0xcc <__bad_interrupt>
       e:	00 00       	nop
      10:	5d c0       	rjmp	.+186    	; 0xcc <__bad_interrupt>
      12:	00 00       	nop
      14:	5b c0       	rjmp	.+182    	; 0xcc <__bad_interrupt>
      16:	00 00       	nop
      18:	59 c0       	rjmp	.+178    	; 0xcc <__bad_interrupt>
      1a:	00 00       	nop
      1c:	57 c0       	rjmp	.+174    	; 0xcc <__bad_interrupt>
      1e:	00 00       	nop
      20:	55 c0       	rjmp	.+170    	; 0xcc <__bad_interrupt>
      22:	00 00       	nop
      24:	53 c0       	rjmp	.+166    	; 0xcc <__bad_interrupt>
      26:	00 00       	nop
      28:	51 c0       	rjmp	.+162    	; 0xcc <__bad_interrupt>
      2a:	00 00       	nop
      2c:	4f c0       	rjmp	.+158    	; 0xcc <__bad_interrupt>
      2e:	00 00       	nop
      30:	4d c0       	rjmp	.+154    	; 0xcc <__bad_interrupt>
      32:	00 00       	nop
      34:	4b c0       	rjmp	.+150    	; 0xcc <__bad_interrupt>
      36:	00 00       	nop
      38:	49 c0       	rjmp	.+146    	; 0xcc <__bad_interrupt>
      3a:	00 00       	nop
      3c:	47 c0       	rjmp	.+142    	; 0xcc <__bad_interrupt>
      3e:	00 00       	nop
      40:	45 c0       	rjmp	.+138    	; 0xcc <__bad_interrupt>
      42:	00 00       	nop
      44:	43 c0       	rjmp	.+134    	; 0xcc <__bad_interrupt>
      46:	00 00       	nop
      48:	42 c0       	rjmp	.+132    	; 0xce <__vector_18>
      4a:	00 00       	nop
      4c:	3f c0       	rjmp	.+126    	; 0xcc <__bad_interrupt>
      4e:	00 00       	nop
      50:	3d c0       	rjmp	.+122    	; 0xcc <__bad_interrupt>
      52:	00 00       	nop
      54:	58 c2       	rjmp	.+1200   	; 0x506 <__vector_21>
      56:	00 00       	nop
      58:	39 c0       	rjmp	.+114    	; 0xcc <__bad_interrupt>
      5a:	00 00       	nop
      5c:	37 c0       	rjmp	.+110    	; 0xcc <__bad_interrupt>
      5e:	00 00       	nop
      60:	35 c0       	rjmp	.+106    	; 0xcc <__bad_interrupt>
      62:	00 00       	nop
      64:	33 c0       	rjmp	.+102    	; 0xcc <__bad_interrupt>
      66:	00 00       	nop
      68:	31 c0       	rjmp	.+98     	; 0xcc <__bad_interrupt>
      6a:	00 00       	nop
      6c:	2f c0       	rjmp	.+94     	; 0xcc <__bad_interrupt>
      6e:	00 00       	nop
      70:	2d c0       	rjmp	.+90     	; 0xcc <__bad_interrupt>
      72:	00 00       	nop
      74:	2b c0       	rjmp	.+86     	; 0xcc <__bad_interrupt>
      76:	00 00       	nop
      78:	29 c0       	rjmp	.+82     	; 0xcc <__bad_interrupt>
      7a:	00 00       	nop
      7c:	27 c0       	rjmp	.+78     	; 0xcc <__bad_interrupt>
      7e:	00 00       	nop
      80:	25 c0       	rjmp	.+74     	; 0xcc <__bad_interrupt>
      82:	00 00       	nop
      84:	23 c0       	rjmp	.+70     	; 0xcc <__bad_interrupt>
      86:	00 00       	nop
      88:	21 c0       	rjmp	.+66     	; 0xcc <__bad_interrupt>
      8a:	00 00       	nop
      8c:	1f c0       	rjmp	.+62     	; 0xcc <__bad_interrupt>
      8e:	00 00       	nop
      90:	1d c0       	rjmp	.+58     	; 0xcc <__bad_interrupt>
	...

00000094 <__ctors_end>:
      94:	11 24       	eor	r1, r1
      96:	1f be       	out	0x3f, r1	; 63
      98:	cf ef       	ldi	r28, 0xFF	; 255
      9a:	d8 e0       	ldi	r29, 0x08	; 8
      9c:	de bf       	out	0x3e, r29	; 62
      9e:	cd bf       	out	0x3d, r28	; 61

000000a0 <__do_copy_data>:
      a0:	11 e0       	ldi	r17, 0x01	; 1
      a2:	a0 e0       	ldi	r26, 0x00	; 0
      a4:	b1 e0       	ldi	r27, 0x01	; 1
      a6:	e4 ee       	ldi	r30, 0xE4	; 228
      a8:	f2 e1       	ldi	r31, 0x12	; 18
      aa:	02 c0       	rjmp	.+4      	; 0xb0 <__do_copy_data+0x10>
      ac:	05 90       	lpm	r0, Z+
      ae:	0d 92       	st	X+, r0
      b0:	a8 3a       	cpi	r26, 0xA8	; 168
      b2:	b1 07       	cpc	r27, r17
      b4:	d9 f7       	brne	.-10     	; 0xac <__do_copy_data+0xc>

000000b6 <__do_clear_bss>:
      b6:	23 e0       	ldi	r18, 0x03	; 3
      b8:	a8 ea       	ldi	r26, 0xA8	; 168
      ba:	b1 e0       	ldi	r27, 0x01	; 1
      bc:	01 c0       	rjmp	.+2      	; 0xc0 <.do_clear_bss_start>

000000be <.do_clear_bss_loop>:
      be:	1d 92       	st	X+, r1

000000c0 <.do_clear_bss_start>:
      c0:	af 37       	cpi	r26, 0x7F	; 127
      c2:	b2 07       	cpc	r27, r18
      c4:	e1 f7       	brne	.-8      	; 0xbe <.do_clear_bss_loop>
      c6:	83 d2       	rcall	.+1286   	; 0x5ce <main>
      c8:	0c 94 70 09 	jmp	0x12e0	; 0x12e0 <_exit>

000000cc <__bad_interrupt>:
      cc:	99 cf       	rjmp	.-206    	; 0x0 <__vectors>

000000ce <__vector_18>:

/**************************************************************************************************
*   CAN ISR - See 'can.h' Header file for Description
**************************************************************************************************/
ISR(CANIT_vect)
{
      ce:	1f 92       	push	r1
      d0:	0f 92       	push	r0
      d2:	0f b6       	in	r0, 0x3f	; 63
      d4:	0f 92       	push	r0
      d6:	11 24       	eor	r1, r1
      d8:	2f 93       	push	r18
      da:	3f 93       	push	r19
      dc:	4f 93       	push	r20
      de:	5f 93       	push	r21
      e0:	6f 93       	push	r22
      e2:	8f 93       	push	r24
      e4:	9f 93       	push	r25
      e6:	af 93       	push	r26
      e8:	bf 93       	push	r27
      ea:	ef 93       	push	r30
      ec:	ff 93       	push	r31
      ee:	cf 93       	push	r28
      f0:	df 93       	push	r29
      f2:	1f 92       	push	r1
      f4:	cd b7       	in	r28, 0x3d	; 61
      f6:	de b7       	in	r29, 0x3e	; 62
	unsigned char can_irq;
	volatile unsigned char canstmod;

	can_irq = CANSIT2;
      f8:	80 91 e0 00 	lds	r24, 0x00E0

	// TX
	if (can_irq & (1 << SIT0) && CANIE2 & (1 << ENMOB0)) {
      fc:	80 ff       	sbrs	r24, 0
      fe:	47 c0       	rjmp	.+142    	; 0x18e <__vector_18+0xc0>
     100:	90 91 de 00 	lds	r25, 0x00DE
     104:	90 ff       	sbrs	r25, 0
     106:	43 c0       	rjmp	.+134    	; 0x18e <__vector_18+0xc0>
		//Select TX Mob (=Mob0)
		CANPAGE = 0 << 4;
     108:	10 92 ed 00 	sts	0x00ED, r1
		canstmod = CANSTMOB;
     10c:	ee ee       	ldi	r30, 0xEE	; 238
     10e:	f0 e0       	ldi	r31, 0x00	; 0
     110:	80 81       	ld	r24, Z
     112:	89 83       	std	Y+1, r24	; 0x01
		CANSTMOB&= ~(1 << TXOK);		//clear MB1, TX interrupt
     114:	80 81       	ld	r24, Z
     116:	8f 7b       	andi	r24, 0xBF	; 191
     118:	80 83       	st	Z, r24
		if (tx_on != tx_off) {
     11a:	80 91 ad 01 	lds	r24, 0x01AD
     11e:	90 91 ac 01 	lds	r25, 0x01AC
     122:	98 17       	cp	r25, r24
     124:	89 f1       	breq	.+98     	; 0x188 <__vector_18+0xba>
			unsigned char pos;
			pos = tx_off & (TX_SIZE-1);
     126:	87 70       	andi	r24, 0x07	; 7
			//set ID
			CANIDT4 = tx_frames[pos].array[0];
     128:	2b e0       	ldi	r18, 0x0B	; 11
     12a:	82 9f       	mul	r24, r18
     12c:	c0 01       	movw	r24, r0
     12e:	11 24       	eor	r1, r1
     130:	fc 01       	movw	r30, r24
     132:	ea 5f       	subi	r30, 0xFA	; 250
     134:	fd 4f       	sbci	r31, 0xFD	; 253
     136:	20 81       	ld	r18, Z
     138:	20 93 f0 00 	sts	0x00F0, r18
			CANIDT2 = tx_frames[pos].array[0];
     13c:	20 81       	ld	r18, Z
     13e:	20 93 f2 00 	sts	0x00F2, r18
			CANIDT1 = tx_frames[pos].array[1];
     142:	21 81       	ldd	r18, Z+1	; 0x01
     144:	20 93 f3 00 	sts	0x00F3, r18

			//program data registers - auto increment CANMSG
			CANMSG = tx_frames[pos].data[0];
     148:	23 81       	ldd	r18, Z+3	; 0x03
     14a:	aa ef       	ldi	r26, 0xFA	; 250
     14c:	b0 e0       	ldi	r27, 0x00	; 0
     14e:	2c 93       	st	X, r18
			CANMSG = tx_frames[pos].data[1];
     150:	24 81       	ldd	r18, Z+4	; 0x04
     152:	2c 93       	st	X, r18
			CANMSG = tx_frames[pos].data[2];
     154:	25 81       	ldd	r18, Z+5	; 0x05
     156:	2c 93       	st	X, r18
			CANMSG = tx_frames[pos].data[3];
     158:	26 81       	ldd	r18, Z+6	; 0x06
     15a:	2c 93       	st	X, r18
			CANMSG = tx_frames[pos].data[4];
     15c:	27 81       	ldd	r18, Z+7	; 0x07
     15e:	2c 93       	st	X, r18
			CANMSG = tx_frames[pos].data[5];
     160:	20 85       	ldd	r18, Z+8	; 0x08
     162:	2c 93       	st	X, r18
			CANMSG = tx_frames[pos].data[6];
     164:	21 85       	ldd	r18, Z+9	; 0x09
     166:	2c 93       	st	X, r18
			CANMSG = tx_frames[pos].data[7];
     168:	22 85       	ldd	r18, Z+10	; 0x0a
     16a:	2c 93       	st	X, r18
			//set length and request send
			CANCDMOB = _BV(CONMOB0) | CAN_IDE | tx_frames[pos].length;
     16c:	fc 01       	movw	r30, r24
     16e:	e8 5f       	subi	r30, 0xF8	; 248
     170:	fd 4f       	sbci	r31, 0xFD	; 253
     172:	80 81       	ld	r24, Z
     174:	8f 70       	andi	r24, 0x0F	; 15
     176:	80 64       	ori	r24, 0x40	; 64
     178:	80 93 ef 00 	sts	0x00EF, r24
			tx_off++;
     17c:	80 91 ad 01 	lds	r24, 0x01AD
     180:	8f 5f       	subi	r24, 0xFF	; 255
     182:	80 93 ad 01 	sts	0x01AD, r24
     186:	7d c0       	rjmp	.+250    	; 0x282 <__vector_18+0x1b4>
		}
		else {
			tx_busy = 0;
     188:	10 92 ab 01 	sts	0x01AB, r1
     18c:	7a c0       	rjmp	.+244    	; 0x282 <__vector_18+0x1b4>
		}
	}
	// RX
	else if (can_irq & (1 << SIT1) && CANIE2 & (1 << ENMOB1)) {
     18e:	81 ff       	sbrs	r24, 1
     190:	78 c0       	rjmp	.+240    	; 0x282 <__vector_18+0x1b4>
     192:	80 91 de 00 	lds	r24, 0x00DE
     196:	81 ff       	sbrs	r24, 1
     198:	74 c0       	rjmp	.+232    	; 0x282 <__vector_18+0x1b4>
		//Select RX Mob (=Mob1)
		CANPAGE = 1 << 4;							//Switch to Mob 1 access
     19a:	80 e1       	ldi	r24, 0x10	; 16
     19c:	80 93 ed 00 	sts	0x00ED, r24
		if (((rx_on - rx_off) & RX_ABS_MASK) < RX_SIZE) {
     1a0:	80 91 a9 01 	lds	r24, 0x01A9
     1a4:	28 2f       	mov	r18, r24
     1a6:	30 e0       	ldi	r19, 0x00	; 0
     1a8:	90 91 aa 01 	lds	r25, 0x01AA
     1ac:	29 1b       	sub	r18, r25
     1ae:	31 09       	sbc	r19, r1
     1b0:	2f 77       	andi	r18, 0x7F	; 127
     1b2:	33 27       	eor	r19, r19
     1b4:	28 30       	cpi	r18, 0x08	; 8
     1b6:	31 05       	cpc	r19, r1
     1b8:	0c f0       	brlt	.+2      	; 0x1bc <__vector_18+0xee>
     1ba:	58 c0       	rjmp	.+176    	; 0x26c <__vector_18+0x19e>
			unsigned char pos;
			pos = rx_on & (RX_SIZE-1);
     1bc:	e8 2f       	mov	r30, r24
     1be:	e7 70       	andi	r30, 0x07	; 7
			//Read length
			rx_frames[pos].length = CANCDMOB & 0x0F;
     1c0:	90 91 ef 00 	lds	r25, 0x00EF
     1c4:	2e 2f       	mov	r18, r30
     1c6:	30 e0       	ldi	r19, 0x00	; 0
     1c8:	4b e0       	ldi	r20, 0x0B	; 11
     1ca:	e4 9f       	mul	r30, r20
     1cc:	f0 01       	movw	r30, r0
     1ce:	11 24       	eor	r1, r1
     1d0:	e2 55       	subi	r30, 0x52	; 82
     1d2:	fe 4f       	sbci	r31, 0xFE	; 254
     1d4:	9f 70       	andi	r25, 0x0F	; 15
     1d6:	42 81       	ldd	r20, Z+2	; 0x02
     1d8:	40 7f       	andi	r20, 0xF0	; 240
     1da:	94 2b       	or	r25, r20
     1dc:	92 83       	std	Z+2, r25	; 0x02
			//Read ID
			rx_frames[pos].array[0] = (CANIDT2 & 0xE0) | (CANIDT4 & 0x07);
     1de:	90 91 f2 00 	lds	r25, 0x00F2
     1e2:	40 91 f0 00 	lds	r20, 0x00F0
     1e6:	47 70       	andi	r20, 0x07	; 7
     1e8:	90 7e       	andi	r25, 0xE0	; 224
     1ea:	94 2b       	or	r25, r20
     1ec:	90 83       	st	Z, r25
			rx_frames[pos].array[1] = CANIDT1;
     1ee:	90 91 f3 00 	lds	r25, 0x00F3
     1f2:	91 83       	std	Z+1, r25	; 0x01

			//read data registers - auto increment CANMSG
			rx_frames[pos].data[0] = CANMSG;
     1f4:	aa ef       	ldi	r26, 0xFA	; 250
     1f6:	b0 e0       	ldi	r27, 0x00	; 0
     1f8:	9c 91       	ld	r25, X
     1fa:	93 83       	std	Z+3, r25	; 0x03
			rx_frames[pos].data[1] = CANMSG;
     1fc:	9c 91       	ld	r25, X
     1fe:	94 83       	std	Z+4, r25	; 0x04
			rx_frames[pos].data[2] = CANMSG;
     200:	9c 91       	ld	r25, X
     202:	95 83       	std	Z+5, r25	; 0x05
			rx_frames[pos].data[3] = CANMSG;
     204:	9c 91       	ld	r25, X
     206:	96 83       	std	Z+6, r25	; 0x06
			rx_frames[pos].data[4] = CANMSG;
     208:	9c 91       	ld	r25, X
     20a:	97 83       	std	Z+7, r25	; 0x07
			rx_frames[pos].data[5] = CANMSG;
     20c:	9c 91       	ld	r25, X
     20e:	90 87       	std	Z+8, r25	; 0x08
			rx_frames[pos].data[6] = CANMSG;
     210:	9c 91       	ld	r25, X
     212:	91 87       	std	Z+9, r25	; 0x09
			rx_frames[pos].data[7] = CANMSG;
     214:	9c 91       	ld	r25, X
     216:	92 87       	std	Z+10, r25	; 0x0a
			rx_on++;
     218:	8f 5f       	subi	r24, 0xFF	; 255
     21a:	80 93 a9 01 	sts	0x01A9, r24

			//reset if reset can message
			if(rx_frames[pos].id == 0x000 && rx_frames[pos].data[0] == 0x03){
     21e:	40 81       	ld	r20, Z
     220:	42 95       	swap	r20
     222:	46 95       	lsr	r20
     224:	47 70       	andi	r20, 0x07	; 7
     226:	51 81       	ldd	r21, Z+1	; 0x01
     228:	65 2f       	mov	r22, r21
     22a:	66 0f       	add	r22, r22
     22c:	66 0f       	add	r22, r22
     22e:	66 0f       	add	r22, r22
     230:	86 2f       	mov	r24, r22
     232:	84 2b       	or	r24, r20
     234:	95 2f       	mov	r25, r21
     236:	92 95       	swap	r25
     238:	96 95       	lsr	r25
     23a:	97 70       	andi	r25, 0x07	; 7
     23c:	89 2b       	or	r24, r25
     23e:	b1 f4       	brne	.+44     	; 0x26c <__vector_18+0x19e>
     240:	8b e0       	ldi	r24, 0x0B	; 11
     242:	82 9f       	mul	r24, r18
     244:	f0 01       	movw	r30, r0
     246:	83 9f       	mul	r24, r19
     248:	f0 0d       	add	r31, r0
     24a:	11 24       	eor	r1, r1
     24c:	e2 55       	subi	r30, 0x52	; 82
     24e:	fe 4f       	sbci	r31, 0xFE	; 254
     250:	83 81       	ldd	r24, Z+3	; 0x03
     252:	83 30       	cpi	r24, 0x03	; 3
     254:	59 f4       	brne	.+22     	; 0x26c <__vector_18+0x19e>
				: "r0"
		);
	}
	else
	{
		__asm__ __volatile__ (
     256:	98 e0       	ldi	r25, 0x08	; 8
     258:	88 e1       	ldi	r24, 0x18	; 24
     25a:	0f b6       	in	r0, 0x3f	; 63
     25c:	f8 94       	cli
     25e:	a8 95       	wdr
     260:	80 93 60 00 	sts	0x0060, r24
     264:	0f be       	out	0x3f, r0	; 63
     266:	90 93 60 00 	sts	0x0060, r25
				wdt_enable(WDTO_15MS);
				while(1); //wait for watchdog
     26a:	ff cf       	rjmp	.-2      	; 0x26a <__vector_18+0x19c>
			}


		}
		//clear irq
		canstmod = CANSTMOB;
     26c:	ee ee       	ldi	r30, 0xEE	; 238
     26e:	f0 e0       	ldi	r31, 0x00	; 0
     270:	80 81       	ld	r24, Z
     272:	89 83       	std	Y+1, r24	; 0x01
		(void)canstmod;
     274:	89 81       	ldd	r24, Y+1	; 0x01
		CANSTMOB&= ~_BV(RXOK);
     276:	80 81       	ld	r24, Z
     278:	8f 7d       	andi	r24, 0xDF	; 223
     27a:	80 83       	st	Z, r24
		CANCDMOB = _BV(CONMOB1) | CAN_IDE;			//Set Mob 1 as RX and IDE
     27c:	80 e8       	ldi	r24, 0x80	; 128
     27e:	80 93 ef 00 	sts	0x00EF, r24

	}
}
     282:	0f 90       	pop	r0
     284:	df 91       	pop	r29
     286:	cf 91       	pop	r28
     288:	ff 91       	pop	r31
     28a:	ef 91       	pop	r30
     28c:	bf 91       	pop	r27
     28e:	af 91       	pop	r26
     290:	9f 91       	pop	r25
     292:	8f 91       	pop	r24
     294:	6f 91       	pop	r22
     296:	5f 91       	pop	r21
     298:	4f 91       	pop	r20
     29a:	3f 91       	pop	r19
     29c:	2f 91       	pop	r18
     29e:	0f 90       	pop	r0
     2a0:	0f be       	out	0x3f, r0	; 63
     2a2:	0f 90       	pop	r0
     2a4:	1f 90       	pop	r1
     2a6:	18 95       	reti

000002a8 <can_init>:


void can_init(void) {
     2a8:	cf 93       	push	r28
     2aa:	df 93       	push	r29
	// Reset CAN controller
	CANGCON = (1 << SWRES);
     2ac:	e8 ed       	ldi	r30, 0xD8	; 216
     2ae:	f0 e0       	ldi	r31, 0x00	; 0
     2b0:	81 e0       	ldi	r24, 0x01	; 1
     2b2:	80 83       	st	Z, r24

	CANBT1 = (BRP_VALUE - 1) << 1;
     2b4:	10 92 e2 00 	sts	0x00E2, r1
	CANBT2 = ((SJW_VALUE - 1) << 5) | ((PROP_SEG - 1) << 1);
     2b8:	8c e0       	ldi	r24, 0x0C	; 12
     2ba:	80 93 e3 00 	sts	0x00E3, r24
	CANBT3 = ((PHASE_SEG_2 - 1) << 4) | ((PHASE_SEG_1 - 1) << 1) | 1;
     2be:	87 e3       	ldi	r24, 0x37	; 55
     2c0:	80 93 e4 00 	sts	0x00E4, r24

	CANTIM = 0;
     2c4:	10 92 e7 00 	sts	0x00E7, r1
     2c8:	10 92 e6 00 	sts	0x00E6, r1
	CANTTC = 0;
     2cc:	10 92 e9 00 	sts	0x00E9, r1
     2d0:	10 92 e8 00 	sts	0x00E8, r1

	CANHPMOB = 0;
     2d4:	10 92 ec 00 	sts	0x00EC, r1
	CANTCON = 0;
     2d8:	10 92 e5 00 	sts	0x00E5, r1

	// Switch to Mob 0 access
	CANPAGE = 0 << 4;
     2dc:	cd ee       	ldi	r28, 0xED	; 237
     2de:	d0 e0       	ldi	r29, 0x00	; 0
     2e0:	18 82       	st	Y, r1
	CANSTMOB = 0;
     2e2:	ae ee       	ldi	r26, 0xEE	; 238
     2e4:	b0 e0       	ldi	r27, 0x00	; 0
     2e6:	1c 92       	st	X, r1
	// Switch to Mob 1 access
	CANPAGE = 1 << 4;
     2e8:	80 e1       	ldi	r24, 0x10	; 16
     2ea:	88 83       	st	Y, r24
	CANSTMOB = 0;
     2ec:	1c 92       	st	X, r1
	CANIDM4 = ACCPT_MASK_RTR << 2 | ACCPT_MASK_IDE;
     2ee:	10 92 f4 00 	sts	0x00F4, r1
	CANIDM2 = (ACCPT_MASK_ID << 5) & 0xFF;
     2f2:	10 92 f6 00 	sts	0x00F6, r1
	CANIDM1 = (ACCPT_MASK_ID >> 3) & 0xFF;
     2f6:	10 92 f7 00 	sts	0x00F7, r1
	CANIDT4 = ACCPT_TAG_RTR << 2 | ACCPT_TAG_RB0;
     2fa:	10 92 f0 00 	sts	0x00F0, r1
	CANIDT2 = (ACCPT_TAG_ID << 5) & 0xFF;
     2fe:	10 92 f2 00 	sts	0x00F2, r1
	CANIDT1 = (ACCPT_TAG_ID >> 3) & 0xFF;
     302:	10 92 f3 00 	sts	0x00F3, r1

	// Set Mob 1 as RX and IDE
	CANCDMOB = (1 << CONMOB1) | CAN_IDE;
     306:	80 e8       	ldi	r24, 0x80	; 128
     308:	80 93 ef 00 	sts	0x00EF, r24
	// Enable Mob 0 and 1
	CANEN2 = (1 << ENMOB1) | (1 << ENMOB0);
     30c:	83 e0       	ldi	r24, 0x03	; 3
     30e:	80 93 dc 00 	sts	0x00DC, r24
	// Enable Mob 0 and 1 Interrupt
	CANIE2 = (1 << ENMOB1) | (1 << ENMOB0);
     312:	80 93 de 00 	sts	0x00DE, r24
	// Enable TX and RX interrupt
	CANGIE = (1 << ENIT) | (1 << ENRX) | (1 << ENTX);	
     316:	80 eb       	ldi	r24, 0xB0	; 176
     318:	80 93 db 00 	sts	0x00DB, r24

	// Enable CAN controller
	CANGCON = (1 << ENASTB);
     31c:	82 e0       	ldi	r24, 0x02	; 2
     31e:	80 83       	st	Z, r24

	reset = 0;
     320:	10 92 a8 01 	sts	0x01A8, r1
}
     324:	df 91       	pop	r29
     326:	cf 91       	pop	r28
     328:	08 95       	ret

0000032a <can_read_message>:

bool can_read_message(CanMessage_t* message) {
     32a:	cf 93       	push	r28
     32c:	df 93       	push	r29
     32e:	ec 01       	movw	r28, r24
	// Check if there is a new message
	if (rx_on == rx_off) {
     330:	40 91 aa 01 	lds	r20, 0x01AA
     334:	20 91 a9 01 	lds	r18, 0x01A9
     338:	24 17       	cp	r18, r20
     33a:	89 f1       	breq	.+98     	; 0x39e <can_read_message+0x74>
		return false;
	}

	// Read the can frame
	can_frame* frame = &rx_frames[(rx_off & (RX_SIZE - 1))];
     33c:	a4 2f       	mov	r26, r20
     33e:	a7 70       	andi	r26, 0x07	; 7

	message->id = frame->id;
     340:	8b e0       	ldi	r24, 0x0B	; 11
     342:	a8 9f       	mul	r26, r24
     344:	b0 01       	movw	r22, r0
     346:	11 24       	eor	r1, r1
     348:	fb 01       	movw	r30, r22
     34a:	e2 55       	subi	r30, 0x52	; 82
     34c:	fe 4f       	sbci	r31, 0xFE	; 254
     34e:	20 81       	ld	r18, Z
     350:	22 95       	swap	r18
     352:	26 95       	lsr	r18
     354:	27 70       	andi	r18, 0x07	; 7
     356:	31 81       	ldd	r19, Z+1	; 0x01
     358:	53 2f       	mov	r21, r19
     35a:	55 0f       	add	r21, r21
     35c:	55 0f       	add	r21, r21
     35e:	55 0f       	add	r21, r21
     360:	25 2b       	or	r18, r21
     362:	32 95       	swap	r19
     364:	36 95       	lsr	r19
     366:	37 70       	andi	r19, 0x07	; 7
     368:	28 83       	st	Y, r18
     36a:	39 83       	std	Y+1, r19	; 0x01
	message->length = frame->length;
     36c:	fb 01       	movw	r30, r22
     36e:	e0 55       	subi	r30, 0x50	; 80
     370:	fe 4f       	sbci	r31, 0xFE	; 254
     372:	20 81       	ld	r18, Z
     374:	2f 70       	andi	r18, 0x0F	; 15
     376:	2a 83       	std	Y+2, r18	; 0x02
	for (int i = 0; i < message->length; i++) {
     378:	22 23       	and	r18, r18
     37a:	99 f0       	breq	.+38     	; 0x3a2 <can_read_message+0x78>
     37c:	db 01       	movw	r26, r22
     37e:	af 54       	subi	r26, 0x4F	; 79
     380:	be 4f       	sbci	r27, 0xFE	; 254
     382:	fe 01       	movw	r30, r28
     384:	33 96       	adiw	r30, 0x03	; 3
     386:	30 e0       	ldi	r19, 0x00	; 0
     388:	2d 5f       	subi	r18, 0xFD	; 253
     38a:	3f 4f       	sbci	r19, 0xFF	; 255
     38c:	ce 01       	movw	r24, r28
     38e:	82 0f       	add	r24, r18
     390:	93 1f       	adc	r25, r19
		message->data[i] = frame->data[i];
     392:	2d 91       	ld	r18, X+
     394:	21 93       	st	Z+, r18
	// Read the can frame
	can_frame* frame = &rx_frames[(rx_off & (RX_SIZE - 1))];

	message->id = frame->id;
	message->length = frame->length;
	for (int i = 0; i < message->length; i++) {
     396:	e8 17       	cp	r30, r24
     398:	f9 07       	cpc	r31, r25
     39a:	d9 f7       	brne	.-10     	; 0x392 <can_read_message+0x68>
     39c:	02 c0       	rjmp	.+4      	; 0x3a2 <can_read_message+0x78>
}

bool can_read_message(CanMessage_t* message) {
	// Check if there is a new message
	if (rx_on == rx_off) {
		return false;
     39e:	80 e0       	ldi	r24, 0x00	; 0
     3a0:	04 c0       	rjmp	.+8      	; 0x3aa <can_read_message+0x80>
		message->data[i] = frame->data[i];
	}

	// Advance to next can message
	if (rx_on != rx_off) {
		rx_off++;
     3a2:	4f 5f       	subi	r20, 0xFF	; 255
     3a4:	40 93 aa 01 	sts	0x01AA, r20
	}

	return true;
     3a8:	81 e0       	ldi	r24, 0x01	; 1
}
     3aa:	df 91       	pop	r29
     3ac:	cf 91       	pop	r28
     3ae:	08 95       	ret

000003b0 <can_send_message>:

bool can_send_message(CanMessage_t* message) {
     3b0:	cf 93       	push	r28
     3b2:	df 93       	push	r29
     3b4:	dc 01       	movw	r26, r24
	uint8_t result;

	result = 0;
	CANGIE &= ~(1 << ENIT);
     3b6:	eb ed       	ldi	r30, 0xDB	; 219
     3b8:	f0 e0       	ldi	r31, 0x00	; 0
     3ba:	80 81       	ld	r24, Z
     3bc:	8f 77       	andi	r24, 0x7F	; 127
     3be:	80 83       	st	Z, r24

	if (!tx_busy) {
     3c0:	80 91 ab 01 	lds	r24, 0x01AB
     3c4:	81 11       	cpse	r24, r1
     3c6:	29 c0       	rjmp	.+82     	; 0x41a <can_send_message+0x6a>
		// Switch to Mob 0 access
		CANPAGE = 0 << 4;
     3c8:	10 92 ed 00 	sts	0x00ED, r1

		// Set ID
		CANIDT2 = message->id << 5;
     3cc:	8c 91       	ld	r24, X
     3ce:	82 95       	swap	r24
     3d0:	88 0f       	add	r24, r24
     3d2:	80 7e       	andi	r24, 0xE0	; 224
     3d4:	80 93 f2 00 	sts	0x00F2, r24
		CANIDT1 = message->id >> 3;
     3d8:	8d 91       	ld	r24, X+
     3da:	9c 91       	ld	r25, X
     3dc:	11 97       	sbiw	r26, 0x01	; 1
     3de:	96 95       	lsr	r25
     3e0:	87 95       	ror	r24
     3e2:	96 95       	lsr	r25
     3e4:	87 95       	ror	r24
     3e6:	96 95       	lsr	r25
     3e8:	87 95       	ror	r24
     3ea:	80 93 f3 00 	sts	0x00F3, r24
     3ee:	fd 01       	movw	r30, r26
     3f0:	33 96       	adiw	r30, 0x03	; 3
     3f2:	9d 01       	movw	r18, r26
     3f4:	25 5f       	subi	r18, 0xF5	; 245
     3f6:	3f 4f       	sbci	r19, 0xFF	; 255

		// Program data registers - auto increment
		for (int i = 0; i < 8; i++) {
			CANMSG = message->data[i];
     3f8:	ca ef       	ldi	r28, 0xFA	; 250
     3fa:	d0 e0       	ldi	r29, 0x00	; 0
     3fc:	81 91       	ld	r24, Z+
     3fe:	88 83       	st	Y, r24
		// Set ID
		CANIDT2 = message->id << 5;
		CANIDT1 = message->id >> 3;

		// Program data registers - auto increment
		for (int i = 0; i < 8; i++) {
     400:	e2 17       	cp	r30, r18
     402:	f3 07       	cpc	r31, r19
     404:	d9 f7       	brne	.-10     	; 0x3fc <can_send_message+0x4c>
			CANMSG = message->data[i];
		}
		
		result = 1;
		tx_busy = 1;
     406:	81 e0       	ldi	r24, 0x01	; 1
     408:	80 93 ab 01 	sts	0x01AB, r24

		// Set length, start send which restarts tx interrupt
		CANCDMOB = (1 << CONMOB0) | CAN_IDE | message->length;
     40c:	12 96       	adiw	r26, 0x02	; 2
     40e:	8c 91       	ld	r24, X
     410:	80 64       	ori	r24, 0x40	; 64
     412:	80 93 ef 00 	sts	0x00EF, r24
		// Program data registers - auto increment
		for (int i = 0; i < 8; i++) {
			CANMSG = message->data[i];
		}
		
		result = 1;
     416:	91 e0       	ldi	r25, 0x01	; 1
     418:	49 c0       	rjmp	.+146    	; 0x4ac <can_send_message+0xfc>
		tx_busy = 1;

		// Set length, start send which restarts tx interrupt
		CANCDMOB = (1 << CONMOB0) | CAN_IDE | message->length;
	}
	else if (TX_SIZE - ((tx_on - tx_off) & TX_ABS_MASK)) {
     41a:	20 91 ac 01 	lds	r18, 0x01AC
     41e:	82 2f       	mov	r24, r18
     420:	90 e0       	ldi	r25, 0x00	; 0
     422:	30 91 ad 01 	lds	r19, 0x01AD
     426:	83 1b       	sub	r24, r19
     428:	91 09       	sbc	r25, r1
     42a:	8f 77       	andi	r24, 0x7F	; 127
     42c:	99 27       	eor	r25, r25
     42e:	08 97       	sbiw	r24, 0x08	; 8
     430:	e1 f1       	breq	.+120    	; 0x4aa <can_send_message+0xfa>
		result = 1;

		tx_frames[tx_on & (TX_SIZE-1)].id = message->id;
     432:	c2 2f       	mov	r28, r18
     434:	c7 70       	andi	r28, 0x07	; 7
     436:	8b e0       	ldi	r24, 0x0B	; 11
     438:	c8 9f       	mul	r28, r24
     43a:	e0 01       	movw	r28, r0
     43c:	11 24       	eor	r1, r1
     43e:	fe 01       	movw	r30, r28
     440:	ea 5f       	subi	r30, 0xFA	; 250
     442:	fd 4f       	sbci	r31, 0xFD	; 253
     444:	8c 91       	ld	r24, X
     446:	98 2f       	mov	r25, r24
     448:	92 95       	swap	r25
     44a:	99 0f       	add	r25, r25
     44c:	90 7e       	andi	r25, 0xE0	; 224
     44e:	80 81       	ld	r24, Z
     450:	8f 71       	andi	r24, 0x1F	; 31
     452:	89 2b       	or	r24, r25
     454:	80 83       	st	Z, r24
     456:	8c 91       	ld	r24, X
     458:	98 2f       	mov	r25, r24
     45a:	96 95       	lsr	r25
     45c:	96 95       	lsr	r25
     45e:	96 95       	lsr	r25
     460:	81 81       	ldd	r24, Z+1	; 0x01
     462:	80 7e       	andi	r24, 0xE0	; 224
     464:	89 2b       	or	r24, r25
     466:	81 83       	std	Z+1, r24	; 0x01
     468:	11 96       	adiw	r26, 0x01	; 1
     46a:	9c 91       	ld	r25, X
     46c:	11 97       	sbiw	r26, 0x01	; 1
     46e:	92 95       	swap	r25
     470:	99 0f       	add	r25, r25
     472:	90 7e       	andi	r25, 0xE0	; 224
     474:	8f 71       	andi	r24, 0x1F	; 31
     476:	89 2b       	or	r24, r25
     478:	81 83       	std	Z+1, r24	; 0x01
		tx_frames[tx_on & (TX_SIZE-1)].length = message->length;
     47a:	12 96       	adiw	r26, 0x02	; 2
     47c:	8c 91       	ld	r24, X
     47e:	12 97       	sbiw	r26, 0x02	; 2
     480:	98 2f       	mov	r25, r24
     482:	9f 70       	andi	r25, 0x0F	; 15
     484:	82 81       	ldd	r24, Z+2	; 0x02
     486:	80 7f       	andi	r24, 0xF0	; 240
     488:	89 2b       	or	r24, r25
     48a:	82 83       	std	Z+2, r24	; 0x02
     48c:	fd 01       	movw	r30, r26
     48e:	33 96       	adiw	r30, 0x03	; 3
     490:	c7 5f       	subi	r28, 0xF7	; 247
     492:	dd 4f       	sbci	r29, 0xFD	; 253
     494:	1b 96       	adiw	r26, 0x0b	; 11
		
		for (int i = 0; i < 8; i++) {
			tx_frames[tx_on & (TX_SIZE-1)].data[i] = message->data[i];
     496:	81 91       	ld	r24, Z+
     498:	89 93       	st	Y+, r24
		result = 1;

		tx_frames[tx_on & (TX_SIZE-1)].id = message->id;
		tx_frames[tx_on & (TX_SIZE-1)].length = message->length;
		
		for (int i = 0; i < 8; i++) {
     49a:	ea 17       	cp	r30, r26
     49c:	fb 07       	cpc	r31, r27
     49e:	d9 f7       	brne	.-10     	; 0x496 <can_send_message+0xe6>
			tx_frames[tx_on & (TX_SIZE-1)].data[i] = message->data[i];
		}

		tx_on++;
     4a0:	2f 5f       	subi	r18, 0xFF	; 255
     4a2:	20 93 ac 01 	sts	0x01AC, r18
		result = 1;
     4a6:	91 e0       	ldi	r25, 0x01	; 1
     4a8:	01 c0       	rjmp	.+2      	; 0x4ac <can_send_message+0xfc>
}

bool can_send_message(CanMessage_t* message) {
	uint8_t result;

	result = 0;
     4aa:	90 e0       	ldi	r25, 0x00	; 0

		tx_on++;
		result = 1;
	}

	CANGIE |= (1 << ENIT);
     4ac:	eb ed       	ldi	r30, 0xDB	; 219
     4ae:	f0 e0       	ldi	r31, 0x00	; 0
     4b0:	80 81       	ld	r24, Z
     4b2:	80 68       	ori	r24, 0x80	; 128
     4b4:	80 83       	st	Z, r24
	return result;
     4b6:	81 e0       	ldi	r24, 0x01	; 1
     4b8:	91 11       	cpse	r25, r1
     4ba:	01 c0       	rjmp	.+2      	; 0x4be <can_send_message+0x10e>
     4bc:	80 e0       	ldi	r24, 0x00	; 0
     4be:	df 91       	pop	r29
     4c0:	cf 91       	pop	r28
     4c2:	08 95       	ret

000004c4 <usbdbg_tx_char>:
	fdevopen(usbdbg_tx_char, NULL);
}

int usbdbg_tx_char(char c, FILE* stream)
{
	while (!(UCSR0A & (1 << UDRE0))) { }; // Wait until data register is empty
     4c4:	e0 ec       	ldi	r30, 0xC0	; 192
     4c6:	f0 e0       	ldi	r31, 0x00	; 0
     4c8:	90 81       	ld	r25, Z
     4ca:	95 ff       	sbrs	r25, 5
     4cc:	fd cf       	rjmp	.-6      	; 0x4c8 <usbdbg_tx_char+0x4>
	UDR0 = c;
     4ce:	80 93 c6 00 	sts	0x00C6, r24
	return 1;
}
     4d2:	81 e0       	ldi	r24, 0x01	; 1
     4d4:	90 e0       	ldi	r25, 0x00	; 0
     4d6:	08 95       	ret

000004d8 <usbdbg_init>:
#include <stdlib.h>

void usbdbg_init()
{
	const uint32_t baud_rate = 19200;
	UBRR0 = (F_CPU / 16) / baud_rate - 1;
     4d8:	89 e1       	ldi	r24, 0x19	; 25
     4da:	90 e0       	ldi	r25, 0x00	; 0
     4dc:	90 93 c5 00 	sts	0x00C5, r25
     4e0:	80 93 c4 00 	sts	0x00C4, r24
	UCSR0C = (3 << UCSZ0);	// 8 bit transfer
     4e4:	86 e0       	ldi	r24, 0x06	; 6
     4e6:	80 93 c2 00 	sts	0x00C2, r24
	UCSR0B |= (1 << TXEN0)|(1<<RXEN0)|(1<<RXCIE0); // Enable receive and transmit
     4ea:	e1 ec       	ldi	r30, 0xC1	; 193
     4ec:	f0 e0       	ldi	r31, 0x00	; 0
     4ee:	80 81       	ld	r24, Z
     4f0:	88 69       	ori	r24, 0x98	; 152
     4f2:	80 83       	st	Z, r24
	
	fdevopen(usbdbg_tx_char, NULL);
     4f4:	60 e0       	ldi	r22, 0x00	; 0
     4f6:	70 e0       	ldi	r23, 0x00	; 0
     4f8:	82 e6       	ldi	r24, 0x62	; 98
     4fa:	92 e0       	ldi	r25, 0x02	; 2
     4fc:	50 c2       	rjmp	.+1184   	; 0x99e <fdevopen>
     4fe:	08 95       	ret

00000500 <usbdbg_rx_char>:
	return 1;
}

char usbdbg_rx_char()
{
	return UDR0;
     500:	80 91 c6 00 	lds	r24, 0x00C6
} 
     504:	08 95       	ret

00000506 <__vector_21>:
			error--;
		}
	}
}

ISR(USART0_RX_vect){
     506:	1f 92       	push	r1
     508:	0f 92       	push	r0
     50a:	0f b6       	in	r0, 0x3f	; 63
     50c:	0f 92       	push	r0
     50e:	11 24       	eor	r1, r1
     510:	2f 93       	push	r18
     512:	3f 93       	push	r19
     514:	4f 93       	push	r20
     516:	5f 93       	push	r21
     518:	6f 93       	push	r22
     51a:	7f 93       	push	r23
     51c:	8f 93       	push	r24
     51e:	9f 93       	push	r25
     520:	af 93       	push	r26
     522:	bf 93       	push	r27
     524:	ef 93       	push	r30
     526:	ff 93       	push	r31
	char rxChar = usbdbg_rx_char();
     528:	eb df       	rcall	.-42     	; 0x500 <usbdbg_rx_char>
     52a:	48 2f       	mov	r20, r24
	uartRxBuffer[rxIndex] = rxChar;
     52c:	20 91 63 02 	lds	r18, 0x0263
     530:	30 91 64 02 	lds	r19, 0x0264
     534:	f9 01       	movw	r30, r18
     536:	e0 59       	subi	r30, 0x90	; 144
     538:	fd 4f       	sbci	r31, 0xFD	; 253
     53a:	80 83       	st	Z, r24
	rxIndex = (rxIndex + 1) % RX_BUFFER_SIZE;
     53c:	c9 01       	movw	r24, r18
     53e:	01 96       	adiw	r24, 0x01	; 1
     540:	68 ec       	ldi	r22, 0xC8	; 200
     542:	70 e0       	ldi	r23, 0x00	; 0
     544:	05 d2       	rcall	.+1034   	; 0x950 <__divmodhi4>
     546:	90 93 64 02 	sts	0x0264, r25
     54a:	80 93 63 02 	sts	0x0263, r24
	
	if (rxChar == '\n')
     54e:	4a 30       	cpi	r20, 0x0A	; 10
     550:	49 f4       	brne	.+18     	; 0x564 <__vector_21+0x5e>
	{	
		newUartMessages++;
     552:	80 91 5f 02 	lds	r24, 0x025F
     556:	90 91 60 02 	lds	r25, 0x0260
     55a:	01 96       	adiw	r24, 0x01	; 1
     55c:	90 93 60 02 	sts	0x0260, r25
     560:	80 93 5f 02 	sts	0x025F, r24
	}
}
     564:	ff 91       	pop	r31
     566:	ef 91       	pop	r30
     568:	bf 91       	pop	r27
     56a:	af 91       	pop	r26
     56c:	9f 91       	pop	r25
     56e:	8f 91       	pop	r24
     570:	7f 91       	pop	r23
     572:	6f 91       	pop	r22
     574:	5f 91       	pop	r21
     576:	4f 91       	pop	r20
     578:	3f 91       	pop	r19
     57a:	2f 91       	pop	r18
     57c:	0f 90       	pop	r0
     57e:	0f be       	out	0x3f, r0	; 63
     580:	0f 90       	pop	r0
     582:	1f 90       	pop	r1
     584:	18 95       	reti

00000586 <ascii_to_dec>:

uint8_t ascii_to_dec(char c)
{
     586:	98 2f       	mov	r25, r24
	uint8_t dec = 0;
	
	if ((c >= '0') && (c <= '9'))
     588:	80 ed       	ldi	r24, 0xD0	; 208
     58a:	89 0f       	add	r24, r25
     58c:	8a 30       	cpi	r24, 0x0A	; 10
     58e:	78 f0       	brcs	.+30     	; 0x5ae <ascii_to_dec+0x28>
	{
		dec = c - '0';
		
	} else if ((c >= 'A') && (c <= 'F'))
     590:	8f eb       	ldi	r24, 0xBF	; 191
     592:	89 0f       	add	r24, r25
     594:	86 30       	cpi	r24, 0x06	; 6
     596:	18 f4       	brcc	.+6      	; 0x59e <ascii_to_dec+0x18>
	{
		dec = c - 'A' + 10;
     598:	89 ec       	ldi	r24, 0xC9	; 201
     59a:	89 0f       	add	r24, r25
     59c:	08 95       	ret
		
	} else if ((c >= 'a') && (c <= 'f'))
     59e:	8f e9       	ldi	r24, 0x9F	; 159
     5a0:	89 0f       	add	r24, r25
     5a2:	86 30       	cpi	r24, 0x06	; 6
     5a4:	18 f4       	brcc	.+6      	; 0x5ac <ascii_to_dec+0x26>
	{
		dec = c - 'a' + 10;
     5a6:	89 ea       	ldi	r24, 0xA9	; 169
     5a8:	89 0f       	add	r24, r25
     5aa:	08 95       	ret
		
	} else {
		dec = 0;
     5ac:	80 e0       	ldi	r24, 0x00	; 0
	}
	
	return (uint8_t)dec;
}
     5ae:	08 95       	ret

000005b0 <handling_error>:

void handling_error(){
	error++;
     5b0:	80 91 5e 02 	lds	r24, 0x025E
     5b4:	8f 5f       	subi	r24, 0xFF	; 255
     5b6:	80 93 5e 02 	sts	0x025E, r24
	newUartMessages--;
     5ba:	80 91 5f 02 	lds	r24, 0x025F
     5be:	90 91 60 02 	lds	r25, 0x0260
     5c2:	01 97       	sbiw	r24, 0x01	; 1
     5c4:	90 93 60 02 	sts	0x0260, r25
     5c8:	80 93 5f 02 	sts	0x025F, r24
     5cc:	08 95       	ret

000005ce <main>:
uint8_t error = 0;

uint8_t ascii_to_dec(char c);
void handling_error();

int main(void){
     5ce:	cf 93       	push	r28
     5d0:	df 93       	push	r29
     5d2:	00 d0       	rcall	.+0      	; 0x5d4 <main+0x6>
     5d4:	00 d0       	rcall	.+0      	; 0x5d6 <main+0x8>
     5d6:	cd b7       	in	r28, 0x3d	; 61
     5d8:	de b7       	in	r29, 0x3e	; 62
	cli();
     5da:	f8 94       	cli
	usbdbg_init();
     5dc:	7d df       	rcall	.-262    	; 0x4d8 <usbdbg_init>
	can_init();
     5de:	64 de       	rcall	.-824    	; 0x2a8 <can_init>
	sei();
     5e0:	78 94       	sei
	
	while (1)
	{
		if (can_read_message(&rxFrame))
     5e2:	05 e6       	ldi	r16, 0x65	; 101
     5e4:	12 e0       	ldi	r17, 0x02	; 2
		{
			int index = 0;
			index += sprintf(uartTxBuffer, "[%03X:%d:", rxFrame.id, rxFrame.length);
     5e6:	0f 2e       	mov	r0, r31
     5e8:	f8 e3       	ldi	r31, 0x38	; 56
     5ea:	8f 2e       	mov	r8, r31
     5ec:	f3 e0       	ldi	r31, 0x03	; 3
     5ee:	9f 2e       	mov	r9, r31
     5f0:	f0 2d       	mov	r31, r0
			 for(int i = 0; i < rxFrame.length; i++)
			 {
				 index += sprintf(&uartTxBuffer[index], "%02X", rxFrame.data[i]);
			 }
			 
			 sprintf(&uartTxBuffer[index], "]\n");
     5f2:	0f 2e       	mov	r0, r31
     5f4:	fd e5       	ldi	r31, 0x5D	; 93
     5f6:	2f 2e       	mov	r2, r31
     5f8:	fa e0       	ldi	r31, 0x0A	; 10
     5fa:	3f 2e       	mov	r3, r31
     5fc:	41 2c       	mov	r4, r1
     5fe:	f0 2d       	mov	r31, r0
			 
			 printf("%s", uartTxBuffer);
     600:	0f 2e       	mov	r0, r31
     602:	f5 e1       	ldi	r31, 0x15	; 21
     604:	6f 2e       	mov	r6, r31
     606:	f1 e0       	ldi	r31, 0x01	; 1
     608:	7f 2e       	mov	r7, r31
     60a:	f0 2d       	mov	r31, r0
		if (can_read_message(&rxFrame))
		{
			int index = 0;
			index += sprintf(uartTxBuffer, "[%03X:%d:", rxFrame.id, rxFrame.length);
			
			 for(int i = 0; i < rxFrame.length; i++)
     60c:	50 2e       	mov	r5, r16
     60e:	19 83       	std	Y+1, r17	; 0x01
	can_init();
	sei();
	
	while (1)
	{
		if (can_read_message(&rxFrame))
     610:	85 2d       	mov	r24, r5
     612:	99 81       	ldd	r25, Y+1	; 0x01
     614:	8a de       	rcall	.-748    	; 0x32a <can_read_message>
     616:	88 23       	and	r24, r24
     618:	09 f4       	brne	.+2      	; 0x61c <main+0x4e>
     61a:	56 c0       	rjmp	.+172    	; 0x6c8 <main+0xfa>
		{
			int index = 0;
			index += sprintf(uartTxBuffer, "[%03X:%d:", rxFrame.id, rxFrame.length);
     61c:	d8 01       	movw	r26, r16
     61e:	12 96       	adiw	r26, 0x02	; 2
     620:	8c 91       	ld	r24, X
     622:	12 97       	sbiw	r26, 0x02	; 2
     624:	1f 92       	push	r1
     626:	8f 93       	push	r24
     628:	11 96       	adiw	r26, 0x01	; 1
     62a:	8c 91       	ld	r24, X
     62c:	11 97       	sbiw	r26, 0x01	; 1
     62e:	8f 93       	push	r24
     630:	8c 91       	ld	r24, X
     632:	8f 93       	push	r24
     634:	a6 e0       	ldi	r26, 0x06	; 6
     636:	b1 e0       	ldi	r27, 0x01	; 1
     638:	bf 93       	push	r27
     63a:	af 93       	push	r26
     63c:	9f 92       	push	r9
     63e:	8f 92       	push	r8
     640:	3b d2       	rcall	.+1142   	; 0xab8 <sprintf>
     642:	7c 01       	movw	r14, r24
			
			 for(int i = 0; i < rxFrame.length; i++)
     644:	d8 01       	movw	r26, r16
     646:	12 96       	adiw	r26, 0x02	; 2
     648:	8c 91       	ld	r24, X
     64a:	0f b6       	in	r0, 0x3f	; 63
     64c:	f8 94       	cli
     64e:	de bf       	out	0x3e, r29	; 62
     650:	0f be       	out	0x3f, r0	; 63
     652:	cd bf       	out	0x3d, r28	; 61
     654:	88 23       	and	r24, r24
     656:	49 f1       	breq	.+82     	; 0x6aa <main+0xdc>
     658:	0f 2e       	mov	r0, r31
     65a:	f8 e6       	ldi	r31, 0x68	; 104
     65c:	af 2e       	mov	r10, r31
     65e:	f2 e0       	ldi	r31, 0x02	; 2
     660:	bf 2e       	mov	r11, r31
     662:	f0 2d       	mov	r31, r0
     664:	c1 2c       	mov	r12, r1
     666:	d1 2c       	mov	r13, r1
			 {
				 index += sprintf(&uartTxBuffer[index], "%02X", rxFrame.data[i]);
     668:	d5 01       	movw	r26, r10
     66a:	2d 91       	ld	r18, X+
     66c:	5d 01       	movw	r10, r26
     66e:	1f 92       	push	r1
     670:	2f 93       	push	r18
     672:	a0 e1       	ldi	r26, 0x10	; 16
     674:	b1 e0       	ldi	r27, 0x01	; 1
     676:	bf 93       	push	r27
     678:	af 93       	push	r26
     67a:	97 01       	movw	r18, r14
     67c:	28 5c       	subi	r18, 0xC8	; 200
     67e:	3c 4f       	sbci	r19, 0xFC	; 252
     680:	3f 93       	push	r19
     682:	2f 93       	push	r18
     684:	19 d2       	rcall	.+1074   	; 0xab8 <sprintf>
     686:	e8 0e       	add	r14, r24
     688:	f9 1e       	adc	r15, r25
		if (can_read_message(&rxFrame))
		{
			int index = 0;
			index += sprintf(uartTxBuffer, "[%03X:%d:", rxFrame.id, rxFrame.length);
			
			 for(int i = 0; i < rxFrame.length; i++)
     68a:	ff ef       	ldi	r31, 0xFF	; 255
     68c:	cf 1a       	sub	r12, r31
     68e:	df 0a       	sbc	r13, r31
     690:	d8 01       	movw	r26, r16
     692:	12 96       	adiw	r26, 0x02	; 2
     694:	2c 91       	ld	r18, X
     696:	30 e0       	ldi	r19, 0x00	; 0
     698:	0f 90       	pop	r0
     69a:	0f 90       	pop	r0
     69c:	0f 90       	pop	r0
     69e:	0f 90       	pop	r0
     6a0:	0f 90       	pop	r0
     6a2:	0f 90       	pop	r0
     6a4:	c2 16       	cp	r12, r18
     6a6:	d3 06       	cpc	r13, r19
     6a8:	fc f2       	brlt	.-66     	; 0x668 <main+0x9a>
			 {
				 index += sprintf(&uartTxBuffer[index], "%02X", rxFrame.data[i]);
			 }
			 
			 sprintf(&uartTxBuffer[index], "]\n");
     6aa:	f7 01       	movw	r30, r14
     6ac:	e8 5c       	subi	r30, 0xC8	; 200
     6ae:	fc 4f       	sbci	r31, 0xFC	; 252
     6b0:	20 82       	st	Z, r2
     6b2:	31 82       	std	Z+1, r3	; 0x01
     6b4:	42 82       	std	Z+2, r4	; 0x02
			 
			 printf("%s", uartTxBuffer);
     6b6:	9f 92       	push	r9
     6b8:	8f 92       	push	r8
     6ba:	7f 92       	push	r7
     6bc:	6f 92       	push	r6
     6be:	b9 d1       	rcall	.+882    	; 0xa32 <printf>
     6c0:	0f 90       	pop	r0
     6c2:	0f 90       	pop	r0
     6c4:	0f 90       	pop	r0
     6c6:	0f 90       	pop	r0
		}
		
		if (newUartMessages)
     6c8:	20 91 5f 02 	lds	r18, 0x025F
     6cc:	30 91 60 02 	lds	r19, 0x0260
     6d0:	23 2b       	or	r18, r19
     6d2:	09 f4       	brne	.+2      	; 0x6d6 <main+0x108>
     6d4:	9d cf       	rjmp	.-198    	; 0x610 <main+0x42>
			uint16_t canId = 0;
			uint8_t errorIncrement = 0;
			uint8_t canData = 0;
			
			//Looking for [ and skips it if we find it, error otherwise
			while(uartRxBuffer[parseIndex] != '[')
     6d6:	80 91 61 02 	lds	r24, 0x0261
     6da:	90 91 62 02 	lds	r25, 0x0262
     6de:	fc 01       	movw	r30, r24
     6e0:	e0 59       	subi	r30, 0x90	; 144
     6e2:	fd 4f       	sbci	r31, 0xFD	; 253
     6e4:	20 81       	ld	r18, Z
     6e6:	2b 35       	cpi	r18, 0x5B	; 91
     6e8:	09 f4       	brne	.+2      	; 0x6ec <main+0x11e>
     6ea:	40 c0       	rjmp	.+128    	; 0x76c <main+0x19e>
			{
				parseIndex = (parseIndex + 1) % RX_BUFFER_SIZE;
     6ec:	01 96       	adiw	r24, 0x01	; 1
     6ee:	68 ec       	ldi	r22, 0xC8	; 200
     6f0:	70 e0       	ldi	r23, 0x00	; 0
     6f2:	2e d1       	rcall	.+604    	; 0x950 <__divmodhi4>
     6f4:	90 93 62 02 	sts	0x0262, r25
     6f8:	80 93 61 02 	sts	0x0261, r24
     6fc:	e1 2c       	mov	r14, r1
     6fe:	f1 2c       	mov	r15, r1
     700:	0f 2e       	mov	r0, r31
     702:	f8 ec       	ldi	r31, 0xC8	; 200
     704:	af 2e       	mov	r10, r31
     706:	b1 2c       	mov	r11, r1
     708:	f0 2d       	mov	r31, r0
					printf("ERROR, Could not find start of CANmessage in uartRxBuffer\n");
					handling_error();
					break;
				} else if (errorIncrement > 1)
				{
					printf("ERROR, Looking for [, increment: %u\n", errorIncrement-1);
     70a:	0f 2e       	mov	r0, r31
     70c:	f2 e5       	ldi	r31, 0x52	; 82
     70e:	cf 2e       	mov	r12, r31
     710:	f1 e0       	ldi	r31, 0x01	; 1
     712:	df 2e       	mov	r13, r31
     714:	f0 2d       	mov	r31, r0
     716:	20 c0       	rjmp	.+64     	; 0x758 <main+0x18a>
			uint8_t canData = 0;
			
			//Looking for [ and skips it if we find it, error otherwise
			while(uartRxBuffer[parseIndex] != '[')
			{
				parseIndex = (parseIndex + 1) % RX_BUFFER_SIZE;
     718:	01 96       	adiw	r24, 0x01	; 1
     71a:	b5 01       	movw	r22, r10
     71c:	19 d1       	rcall	.+562    	; 0x950 <__divmodhi4>
     71e:	90 93 62 02 	sts	0x0262, r25
     722:	80 93 61 02 	sts	0x0261, r24
				if (errorIncrement == RX_BUFFER_SIZE)
     726:	b7 ec       	ldi	r27, 0xC7	; 199
     728:	eb 16       	cp	r14, r27
     72a:	f1 04       	cpc	r15, r1
     72c:	29 f4       	brne	.+10     	; 0x738 <main+0x16a>
				{
					printf("ERROR, Could not find start of CANmessage in uartRxBuffer\n");
     72e:	88 e1       	ldi	r24, 0x18	; 24
     730:	91 e0       	ldi	r25, 0x01	; 1
     732:	92 d1       	rcall	.+804    	; 0xa58 <puts>
					handling_error();
     734:	3d df       	rcall	.-390    	; 0x5b0 <handling_error>
					break;
     736:	1a c0       	rjmp	.+52     	; 0x76c <main+0x19e>
     738:	81 e0       	ldi	r24, 0x01	; 1
     73a:	8e 0d       	add	r24, r14
				} else if (errorIncrement > 1)
     73c:	82 30       	cpi	r24, 0x02	; 2
     73e:	48 f0       	brcs	.+18     	; 0x752 <main+0x184>
				{
					printf("ERROR, Looking for [, increment: %u\n", errorIncrement-1);
     740:	ff 92       	push	r15
     742:	ef 92       	push	r14
     744:	df 92       	push	r13
     746:	cf 92       	push	r12
     748:	74 d1       	rcall	.+744    	; 0xa32 <printf>
     74a:	0f 90       	pop	r0
     74c:	0f 90       	pop	r0
     74e:	0f 90       	pop	r0
     750:	0f 90       	pop	r0
     752:	ef ef       	ldi	r30, 0xFF	; 255
     754:	ee 1a       	sub	r14, r30
     756:	fe 0a       	sbc	r15, r30
			uint16_t canId = 0;
			uint8_t errorIncrement = 0;
			uint8_t canData = 0;
			
			//Looking for [ and skips it if we find it, error otherwise
			while(uartRxBuffer[parseIndex] != '[')
     758:	80 91 61 02 	lds	r24, 0x0261
     75c:	90 91 62 02 	lds	r25, 0x0262
     760:	fc 01       	movw	r30, r24
     762:	e0 59       	subi	r30, 0x90	; 144
     764:	fd 4f       	sbci	r31, 0xFD	; 253
     766:	20 81       	ld	r18, Z
     768:	2b 35       	cpi	r18, 0x5B	; 91
     76a:	b1 f6       	brne	.-84     	; 0x718 <main+0x14a>
					printf("ERROR, Looking for [, increment: %u\n", errorIncrement-1);
				}
				errorIncrement++;
			}
			
			if (error == 0)
     76c:	80 91 5e 02 	lds	r24, 0x025E
     770:	81 11       	cpse	r24, r1
     772:	e8 c0       	rjmp	.+464    	; 0x944 <__stack+0x45>
			{
				parseIndex = (parseIndex + 1) % RX_BUFFER_SIZE;
     774:	80 91 61 02 	lds	r24, 0x0261
     778:	90 91 62 02 	lds	r25, 0x0262
     77c:	01 96       	adiw	r24, 0x01	; 1
     77e:	0f 2e       	mov	r0, r31
     780:	f8 ec       	ldi	r31, 0xC8	; 200
     782:	ef 2e       	mov	r14, r31
     784:	f1 2c       	mov	r15, r1
     786:	f0 2d       	mov	r31, r0
     788:	b7 01       	movw	r22, r14
     78a:	e2 d0       	rcall	.+452    	; 0x950 <__divmodhi4>
     78c:	6c 01       	movw	r12, r24
				
				
				// Setting CAN-ID
				canId += (ascii_to_dec(uartRxBuffer[parseIndex]) << 8);
     78e:	fc 01       	movw	r30, r24
     790:	e0 59       	subi	r30, 0x90	; 144
     792:	fd 4f       	sbci	r31, 0xFD	; 253
     794:	80 81       	ld	r24, Z
     796:	f7 de       	rcall	.-530    	; 0x586 <ascii_to_dec>
     798:	a8 2e       	mov	r10, r24
				parseIndex = (parseIndex + 1) % RX_BUFFER_SIZE;
     79a:	c6 01       	movw	r24, r12
     79c:	01 96       	adiw	r24, 0x01	; 1
     79e:	b7 01       	movw	r22, r14
     7a0:	d7 d0       	rcall	.+430    	; 0x950 <__divmodhi4>
     7a2:	6c 01       	movw	r12, r24
				canId += (ascii_to_dec(uartRxBuffer[parseIndex]) << 4);
     7a4:	fc 01       	movw	r30, r24
     7a6:	e0 59       	subi	r30, 0x90	; 144
     7a8:	fd 4f       	sbci	r31, 0xFD	; 253
     7aa:	80 81       	ld	r24, Z
     7ac:	ec de       	rcall	.-552    	; 0x586 <ascii_to_dec>
			{
				parseIndex = (parseIndex + 1) % RX_BUFFER_SIZE;
				
				
				// Setting CAN-ID
				canId += (ascii_to_dec(uartRxBuffer[parseIndex]) << 8);
     7ae:	b1 2c       	mov	r11, r1
     7b0:	ba 2c       	mov	r11, r10
     7b2:	aa 24       	eor	r10, r10
				parseIndex = (parseIndex + 1) % RX_BUFFER_SIZE;
				canId += (ascii_to_dec(uartRxBuffer[parseIndex]) << 4);
     7b4:	f0 e1       	ldi	r31, 0x10	; 16
     7b6:	8f 9f       	mul	r24, r31
     7b8:	a0 0c       	add	r10, r0
     7ba:	b1 1c       	adc	r11, r1
     7bc:	11 24       	eor	r1, r1
				parseIndex = (parseIndex + 1) % RX_BUFFER_SIZE;
     7be:	c6 01       	movw	r24, r12
     7c0:	01 96       	adiw	r24, 0x01	; 1
     7c2:	b7 01       	movw	r22, r14
     7c4:	c5 d0       	rcall	.+394    	; 0x950 <__divmodhi4>
     7c6:	6c 01       	movw	r12, r24
				canId += ascii_to_dec(uartRxBuffer[parseIndex]);
     7c8:	fc 01       	movw	r30, r24
     7ca:	e0 59       	subi	r30, 0x90	; 144
     7cc:	fd 4f       	sbci	r31, 0xFD	; 253
     7ce:	80 81       	ld	r24, Z
     7d0:	da de       	rcall	.-588    	; 0x586 <ascii_to_dec>
     7d2:	a8 0e       	add	r10, r24
     7d4:	b1 1c       	adc	r11, r1
				parseIndex = (parseIndex + 1) % RX_BUFFER_SIZE;
     7d6:	c6 01       	movw	r24, r12
     7d8:	01 96       	adiw	r24, 0x01	; 1
     7da:	b7 01       	movw	r22, r14
     7dc:	b9 d0       	rcall	.+370    	; 0x950 <__divmodhi4>
     7de:	90 93 62 02 	sts	0x0262, r25
     7e2:	80 93 61 02 	sts	0x0261, r24
				printf("CAN id: %03X\n",canId);
     7e6:	bf 92       	push	r11
     7e8:	af 92       	push	r10
     7ea:	87 e7       	ldi	r24, 0x77	; 119
     7ec:	91 e0       	ldi	r25, 0x01	; 1
     7ee:	9f 93       	push	r25
     7f0:	8f 93       	push	r24
     7f2:	1f d1       	rcall	.+574    	; 0xa32 <printf>
				txFrame.id = canId;
     7f4:	0f 2e       	mov	r0, r31
     7f6:	fa e6       	ldi	r31, 0x6A	; 106
     7f8:	cf 2e       	mov	r12, r31
     7fa:	f3 e0       	ldi	r31, 0x03	; 3
     7fc:	df 2e       	mov	r13, r31
     7fe:	f0 2d       	mov	r31, r0
     800:	d6 01       	movw	r26, r12
     802:	ad 92       	st	X+, r10
     804:	bc 92       	st	X, r11
				
				//Jump over :
				parseIndex = (parseIndex + 1) % RX_BUFFER_SIZE;
     806:	80 91 61 02 	lds	r24, 0x0261
     80a:	90 91 62 02 	lds	r25, 0x0262
     80e:	01 96       	adiw	r24, 0x01	; 1
     810:	b7 01       	movw	r22, r14
     812:	9e d0       	rcall	.+316    	; 0x950 <__divmodhi4>
     814:	5c 01       	movw	r10, r24
				
				//Translating from ASCII and setting length
				txFrame.length = ascii_to_dec(uartRxBuffer[parseIndex]);
     816:	fc 01       	movw	r30, r24
     818:	e0 59       	subi	r30, 0x90	; 144
     81a:	fd 4f       	sbci	r31, 0xFD	; 253
     81c:	80 81       	ld	r24, Z
     81e:	b3 de       	rcall	.-666    	; 0x586 <ascii_to_dec>
     820:	28 2f       	mov	r18, r24
     822:	f6 01       	movw	r30, r12
     824:	82 83       	std	Z+2, r24	; 0x02
				parseIndex = (parseIndex+1) % RX_BUFFER_SIZE;
     826:	c5 01       	movw	r24, r10
     828:	01 96       	adiw	r24, 0x01	; 1
     82a:	b7 01       	movw	r22, r14
     82c:	91 d0       	rcall	.+290    	; 0x950 <__divmodhi4>
     82e:	90 93 62 02 	sts	0x0262, r25
     832:	80 93 61 02 	sts	0x0261, r24
				
				printf("CAN Length: %u\n",txFrame.length);
     836:	1f 92       	push	r1
     838:	2f 93       	push	r18
     83a:	85 e8       	ldi	r24, 0x85	; 133
     83c:	91 e0       	ldi	r25, 0x01	; 1
     83e:	9f 93       	push	r25
     840:	8f 93       	push	r24
     842:	f7 d0       	rcall	.+494    	; 0xa32 <printf>
				
				//Jump over :
				parseIndex = (parseIndex+1) % RX_BUFFER_SIZE;
     844:	80 91 61 02 	lds	r24, 0x0261
     848:	90 91 62 02 	lds	r25, 0x0262
     84c:	01 96       	adiw	r24, 0x01	; 1
     84e:	b7 01       	movw	r22, r14
     850:	7f d0       	rcall	.+254    	; 0x950 <__divmodhi4>
     852:	90 93 62 02 	sts	0x0262, r25
     856:	80 93 61 02 	sts	0x0261, r24
				
				//Setting data
				for (int i = 0; i < txFrame.length; i++)
     85a:	d6 01       	movw	r26, r12
     85c:	12 96       	adiw	r26, 0x02	; 2
     85e:	8c 91       	ld	r24, X
     860:	0f b6       	in	r0, 0x3f	; 63
     862:	f8 94       	cli
     864:	de bf       	out	0x3e, r29	; 62
     866:	0f be       	out	0x3f, r0	; 63
     868:	cd bf       	out	0x3d, r28	; 61
     86a:	88 23       	and	r24, r24
     86c:	09 f4       	brne	.+2      	; 0x870 <main+0x2a2>
     86e:	4e c0       	rjmp	.+156    	; 0x90c <__stack+0xd>
     870:	0f 2e       	mov	r0, r31
     872:	fd e6       	ldi	r31, 0x6D	; 109
     874:	af 2e       	mov	r10, r31
     876:	f3 e0       	ldi	r31, 0x03	; 3
     878:	bf 2e       	mov	r11, r31
     87a:	f0 2d       	mov	r31, r0
     87c:	e1 2c       	mov	r14, r1
     87e:	f1 2c       	mov	r15, r1
     880:	20 e1       	ldi	r18, 0x10	; 16
     882:	31 e0       	ldi	r19, 0x01	; 1
     884:	3b 83       	std	Y+3, r19	; 0x03
     886:	2a 83       	std	Y+2, r18	; 0x02
     888:	5c 82       	std	Y+4, r5	; 0x04
				{
					canData = (ascii_to_dec(uartRxBuffer[parseIndex]) << 4);
     88a:	c0 90 61 02 	lds	r12, 0x0261
     88e:	d0 90 62 02 	lds	r13, 0x0262
     892:	f6 01       	movw	r30, r12
     894:	e0 59       	subi	r30, 0x90	; 144
     896:	fd 4f       	sbci	r31, 0xFD	; 253
     898:	80 81       	ld	r24, Z
     89a:	75 de       	rcall	.-790    	; 0x586 <ascii_to_dec>
     89c:	58 2e       	mov	r5, r24
     89e:	55 0c       	add	r5, r5
     8a0:	55 0c       	add	r5, r5
     8a2:	55 0c       	add	r5, r5
     8a4:	55 0c       	add	r5, r5
					parseIndex = (parseIndex+1) % RX_BUFFER_SIZE;
     8a6:	c6 01       	movw	r24, r12
     8a8:	01 96       	adiw	r24, 0x01	; 1
     8aa:	68 ec       	ldi	r22, 0xC8	; 200
     8ac:	70 e0       	ldi	r23, 0x00	; 0
     8ae:	50 d0       	rcall	.+160    	; 0x950 <__divmodhi4>
     8b0:	6c 01       	movw	r12, r24
					
					canData |= (ascii_to_dec(uartRxBuffer[parseIndex]));
     8b2:	fc 01       	movw	r30, r24
     8b4:	e0 59       	subi	r30, 0x90	; 144
     8b6:	fd 4f       	sbci	r31, 0xFD	; 253
     8b8:	80 81       	ld	r24, Z
     8ba:	65 de       	rcall	.-822    	; 0x586 <ascii_to_dec>
     8bc:	25 2d       	mov	r18, r5
     8be:	28 2b       	or	r18, r24
					parseIndex = (parseIndex+1) % RX_BUFFER_SIZE;
     8c0:	c6 01       	movw	r24, r12
     8c2:	01 96       	adiw	r24, 0x01	; 1
     8c4:	68 ec       	ldi	r22, 0xC8	; 200
     8c6:	70 e0       	ldi	r23, 0x00	; 0
     8c8:	43 d0       	rcall	.+134    	; 0x950 <__divmodhi4>
     8ca:	90 93 62 02 	sts	0x0262, r25
     8ce:	80 93 61 02 	sts	0x0261, r24
					
					txFrame.data[i] = canData;
     8d2:	d5 01       	movw	r26, r10
     8d4:	2d 93       	st	X+, r18
     8d6:	5d 01       	movw	r10, r26
					printf("Can Data %d: %02X\n", i, txFrame.data[i]);
     8d8:	1f 92       	push	r1
     8da:	2f 93       	push	r18
     8dc:	ff 92       	push	r15
     8de:	ef 92       	push	r14
     8e0:	a5 e9       	ldi	r26, 0x95	; 149
     8e2:	b1 e0       	ldi	r27, 0x01	; 1
     8e4:	bf 93       	push	r27
     8e6:	af 93       	push	r26
     8e8:	a4 d0       	rcall	.+328    	; 0xa32 <printf>
				
				//Jump over :
				parseIndex = (parseIndex+1) % RX_BUFFER_SIZE;
				
				//Setting data
				for (int i = 0; i < txFrame.length; i++)
     8ea:	ff ef       	ldi	r31, 0xFF	; 255
     8ec:	ef 1a       	sub	r14, r31
     8ee:	ff 0a       	sbc	r15, r31
     8f0:	80 91 6c 03 	lds	r24, 0x036C
     8f4:	90 e0       	ldi	r25, 0x00	; 0
     8f6:	0f 90       	pop	r0
     8f8:	0f 90       	pop	r0
     8fa:	0f 90       	pop	r0
     8fc:	0f 90       	pop	r0
     8fe:	0f 90       	pop	r0
     900:	0f 90       	pop	r0
     902:	e8 16       	cp	r14, r24
     904:	f9 06       	cpc	r15, r25
     906:	0c f4       	brge	.+2      	; 0x90a <__stack+0xb>
     908:	c0 cf       	rjmp	.-128    	; 0x88a <main+0x2bc>
     90a:	5c 80       	ldd	r5, Y+4	; 0x04
					txFrame.data[i] = canData;
					printf("Can Data %d: %02X\n", i, txFrame.data[i]);
				}
				
				//Jump over ]
				parseIndex = (parseIndex+1) % RX_BUFFER_SIZE;
     90c:	80 91 61 02 	lds	r24, 0x0261
     910:	90 91 62 02 	lds	r25, 0x0262
     914:	01 96       	adiw	r24, 0x01	; 1
     916:	28 ec       	ldi	r18, 0xC8	; 200
     918:	30 e0       	ldi	r19, 0x00	; 0
     91a:	b9 01       	movw	r22, r18
     91c:	19 d0       	rcall	.+50     	; 0x950 <__divmodhi4>
				//Jump over \n
				parseIndex = (parseIndex+1) % RX_BUFFER_SIZE;
     91e:	01 96       	adiw	r24, 0x01	; 1
     920:	b9 01       	movw	r22, r18
     922:	16 d0       	rcall	.+44     	; 0x950 <__divmodhi4>
     924:	90 93 62 02 	sts	0x0262, r25
     928:	80 93 61 02 	sts	0x0261, r24
				
				can_send_message(&txFrame);
     92c:	8a e6       	ldi	r24, 0x6A	; 106
     92e:	93 e0       	ldi	r25, 0x03	; 3
     930:	3f dd       	rcall	.-1410   	; 0x3b0 <can_send_message>
				newUartMessages-- ;	
     932:	80 91 5f 02 	lds	r24, 0x025F
     936:	90 91 60 02 	lds	r25, 0x0260
     93a:	01 97       	sbiw	r24, 0x01	; 1
     93c:	90 93 60 02 	sts	0x0260, r25
     940:	80 93 5f 02 	sts	0x025F, r24
			}
			error--;
     944:	80 91 5e 02 	lds	r24, 0x025E
     948:	81 50       	subi	r24, 0x01	; 1
     94a:	80 93 5e 02 	sts	0x025E, r24
     94e:	60 ce       	rjmp	.-832    	; 0x610 <main+0x42>

00000950 <__divmodhi4>:
     950:	97 fb       	bst	r25, 7
     952:	07 2e       	mov	r0, r23
     954:	16 f4       	brtc	.+4      	; 0x95a <__divmodhi4+0xa>
     956:	00 94       	com	r0
     958:	06 d0       	rcall	.+12     	; 0x966 <__divmodhi4_neg1>
     95a:	77 fd       	sbrc	r23, 7
     95c:	08 d0       	rcall	.+16     	; 0x96e <__divmodhi4_neg2>
     95e:	0b d0       	rcall	.+22     	; 0x976 <__udivmodhi4>
     960:	07 fc       	sbrc	r0, 7
     962:	05 d0       	rcall	.+10     	; 0x96e <__divmodhi4_neg2>
     964:	3e f4       	brtc	.+14     	; 0x974 <__divmodhi4_exit>

00000966 <__divmodhi4_neg1>:
     966:	90 95       	com	r25
     968:	81 95       	neg	r24
     96a:	9f 4f       	sbci	r25, 0xFF	; 255
     96c:	08 95       	ret

0000096e <__divmodhi4_neg2>:
     96e:	70 95       	com	r23
     970:	61 95       	neg	r22
     972:	7f 4f       	sbci	r23, 0xFF	; 255

00000974 <__divmodhi4_exit>:
     974:	08 95       	ret

00000976 <__udivmodhi4>:
     976:	aa 1b       	sub	r26, r26
     978:	bb 1b       	sub	r27, r27
     97a:	51 e1       	ldi	r21, 0x11	; 17
     97c:	07 c0       	rjmp	.+14     	; 0x98c <__udivmodhi4_ep>

0000097e <__udivmodhi4_loop>:
     97e:	aa 1f       	adc	r26, r26
     980:	bb 1f       	adc	r27, r27
     982:	a6 17       	cp	r26, r22
     984:	b7 07       	cpc	r27, r23
     986:	10 f0       	brcs	.+4      	; 0x98c <__udivmodhi4_ep>
     988:	a6 1b       	sub	r26, r22
     98a:	b7 0b       	sbc	r27, r23

0000098c <__udivmodhi4_ep>:
     98c:	88 1f       	adc	r24, r24
     98e:	99 1f       	adc	r25, r25
     990:	5a 95       	dec	r21
     992:	a9 f7       	brne	.-22     	; 0x97e <__udivmodhi4_loop>
     994:	80 95       	com	r24
     996:	90 95       	com	r25
     998:	bc 01       	movw	r22, r24
     99a:	cd 01       	movw	r24, r26
     99c:	08 95       	ret

0000099e <fdevopen>:
     99e:	0f 93       	push	r16
     9a0:	1f 93       	push	r17
     9a2:	cf 93       	push	r28
     9a4:	df 93       	push	r29
     9a6:	00 97       	sbiw	r24, 0x00	; 0
     9a8:	31 f4       	brne	.+12     	; 0x9b6 <fdevopen+0x18>
     9aa:	61 15       	cp	r22, r1
     9ac:	71 05       	cpc	r23, r1
     9ae:	19 f4       	brne	.+6      	; 0x9b6 <fdevopen+0x18>
     9b0:	80 e0       	ldi	r24, 0x00	; 0
     9b2:	90 e0       	ldi	r25, 0x00	; 0
     9b4:	39 c0       	rjmp	.+114    	; 0xa28 <fdevopen+0x8a>
     9b6:	8b 01       	movw	r16, r22
     9b8:	ec 01       	movw	r28, r24
     9ba:	6e e0       	ldi	r22, 0x0E	; 14
     9bc:	70 e0       	ldi	r23, 0x00	; 0
     9be:	81 e0       	ldi	r24, 0x01	; 1
     9c0:	90 e0       	ldi	r25, 0x00	; 0
     9c2:	5d d2       	rcall	.+1210   	; 0xe7e <calloc>
     9c4:	fc 01       	movw	r30, r24
     9c6:	89 2b       	or	r24, r25
     9c8:	99 f3       	breq	.-26     	; 0x9b0 <fdevopen+0x12>
     9ca:	80 e8       	ldi	r24, 0x80	; 128
     9cc:	83 83       	std	Z+3, r24	; 0x03
     9ce:	01 15       	cp	r16, r1
     9d0:	11 05       	cpc	r17, r1
     9d2:	71 f0       	breq	.+28     	; 0x9f0 <fdevopen+0x52>
     9d4:	13 87       	std	Z+11, r17	; 0x0b
     9d6:	02 87       	std	Z+10, r16	; 0x0a
     9d8:	81 e8       	ldi	r24, 0x81	; 129
     9da:	83 83       	std	Z+3, r24	; 0x03
     9dc:	80 91 75 03 	lds	r24, 0x0375
     9e0:	90 91 76 03 	lds	r25, 0x0376
     9e4:	89 2b       	or	r24, r25
     9e6:	21 f4       	brne	.+8      	; 0x9f0 <fdevopen+0x52>
     9e8:	f0 93 76 03 	sts	0x0376, r31
     9ec:	e0 93 75 03 	sts	0x0375, r30
     9f0:	20 97       	sbiw	r28, 0x00	; 0
     9f2:	c9 f0       	breq	.+50     	; 0xa26 <fdevopen+0x88>
     9f4:	d1 87       	std	Z+9, r29	; 0x09
     9f6:	c0 87       	std	Z+8, r28	; 0x08
     9f8:	83 81       	ldd	r24, Z+3	; 0x03
     9fa:	82 60       	ori	r24, 0x02	; 2
     9fc:	83 83       	std	Z+3, r24	; 0x03
     9fe:	80 91 77 03 	lds	r24, 0x0377
     a02:	90 91 78 03 	lds	r25, 0x0378
     a06:	89 2b       	or	r24, r25
     a08:	71 f4       	brne	.+28     	; 0xa26 <fdevopen+0x88>
     a0a:	f0 93 78 03 	sts	0x0378, r31
     a0e:	e0 93 77 03 	sts	0x0377, r30
     a12:	80 91 79 03 	lds	r24, 0x0379
     a16:	90 91 7a 03 	lds	r25, 0x037A
     a1a:	89 2b       	or	r24, r25
     a1c:	21 f4       	brne	.+8      	; 0xa26 <fdevopen+0x88>
     a1e:	f0 93 7a 03 	sts	0x037A, r31
     a22:	e0 93 79 03 	sts	0x0379, r30
     a26:	cf 01       	movw	r24, r30
     a28:	df 91       	pop	r29
     a2a:	cf 91       	pop	r28
     a2c:	1f 91       	pop	r17
     a2e:	0f 91       	pop	r16
     a30:	08 95       	ret

00000a32 <printf>:
     a32:	a0 e0       	ldi	r26, 0x00	; 0
     a34:	b0 e0       	ldi	r27, 0x00	; 0
     a36:	ee e1       	ldi	r30, 0x1E	; 30
     a38:	f5 e0       	ldi	r31, 0x05	; 5
     a3a:	2b c4       	rjmp	.+2134   	; 0x1292 <__prologue_saves__+0x20>
     a3c:	ae 01       	movw	r20, r28
     a3e:	4b 5f       	subi	r20, 0xFB	; 251
     a40:	5f 4f       	sbci	r21, 0xFF	; 255
     a42:	fa 01       	movw	r30, r20
     a44:	61 91       	ld	r22, Z+
     a46:	71 91       	ld	r23, Z+
     a48:	af 01       	movw	r20, r30
     a4a:	80 91 77 03 	lds	r24, 0x0377
     a4e:	90 91 78 03 	lds	r25, 0x0378
     a52:	52 d0       	rcall	.+164    	; 0xaf8 <vfprintf>
     a54:	e2 e0       	ldi	r30, 0x02	; 2
     a56:	39 c4       	rjmp	.+2162   	; 0x12ca <__epilogue_restores__+0x20>

00000a58 <puts>:
     a58:	0f 93       	push	r16
     a5a:	1f 93       	push	r17
     a5c:	cf 93       	push	r28
     a5e:	df 93       	push	r29
     a60:	e0 91 77 03 	lds	r30, 0x0377
     a64:	f0 91 78 03 	lds	r31, 0x0378
     a68:	23 81       	ldd	r18, Z+3	; 0x03
     a6a:	21 ff       	sbrs	r18, 1
     a6c:	1b c0       	rjmp	.+54     	; 0xaa4 <puts+0x4c>
     a6e:	8c 01       	movw	r16, r24
     a70:	d0 e0       	ldi	r29, 0x00	; 0
     a72:	c0 e0       	ldi	r28, 0x00	; 0
     a74:	f8 01       	movw	r30, r16
     a76:	81 91       	ld	r24, Z+
     a78:	8f 01       	movw	r16, r30
     a7a:	60 91 77 03 	lds	r22, 0x0377
     a7e:	70 91 78 03 	lds	r23, 0x0378
     a82:	db 01       	movw	r26, r22
     a84:	18 96       	adiw	r26, 0x08	; 8
     a86:	ed 91       	ld	r30, X+
     a88:	fc 91       	ld	r31, X
     a8a:	19 97       	sbiw	r26, 0x09	; 9
     a8c:	88 23       	and	r24, r24
     a8e:	31 f0       	breq	.+12     	; 0xa9c <puts+0x44>
     a90:	09 95       	icall
     a92:	89 2b       	or	r24, r25
     a94:	79 f3       	breq	.-34     	; 0xa74 <puts+0x1c>
     a96:	df ef       	ldi	r29, 0xFF	; 255
     a98:	cf ef       	ldi	r28, 0xFF	; 255
     a9a:	ec cf       	rjmp	.-40     	; 0xa74 <puts+0x1c>
     a9c:	8a e0       	ldi	r24, 0x0A	; 10
     a9e:	09 95       	icall
     aa0:	89 2b       	or	r24, r25
     aa2:	19 f0       	breq	.+6      	; 0xaaa <puts+0x52>
     aa4:	8f ef       	ldi	r24, 0xFF	; 255
     aa6:	9f ef       	ldi	r25, 0xFF	; 255
     aa8:	02 c0       	rjmp	.+4      	; 0xaae <puts+0x56>
     aaa:	8d 2f       	mov	r24, r29
     aac:	9c 2f       	mov	r25, r28
     aae:	df 91       	pop	r29
     ab0:	cf 91       	pop	r28
     ab2:	1f 91       	pop	r17
     ab4:	0f 91       	pop	r16
     ab6:	08 95       	ret

00000ab8 <sprintf>:
     ab8:	ae e0       	ldi	r26, 0x0E	; 14
     aba:	b0 e0       	ldi	r27, 0x00	; 0
     abc:	e1 e6       	ldi	r30, 0x61	; 97
     abe:	f5 e0       	ldi	r31, 0x05	; 5
     ac0:	e6 c3       	rjmp	.+1996   	; 0x128e <__prologue_saves__+0x1c>
     ac2:	0d 89       	ldd	r16, Y+21	; 0x15
     ac4:	1e 89       	ldd	r17, Y+22	; 0x16
     ac6:	86 e0       	ldi	r24, 0x06	; 6
     ac8:	8c 83       	std	Y+4, r24	; 0x04
     aca:	1a 83       	std	Y+2, r17	; 0x02
     acc:	09 83       	std	Y+1, r16	; 0x01
     ace:	8f ef       	ldi	r24, 0xFF	; 255
     ad0:	9f e7       	ldi	r25, 0x7F	; 127
     ad2:	9e 83       	std	Y+6, r25	; 0x06
     ad4:	8d 83       	std	Y+5, r24	; 0x05
     ad6:	ae 01       	movw	r20, r28
     ad8:	47 5e       	subi	r20, 0xE7	; 231
     ada:	5f 4f       	sbci	r21, 0xFF	; 255
     adc:	6f 89       	ldd	r22, Y+23	; 0x17
     ade:	78 8d       	ldd	r23, Y+24	; 0x18
     ae0:	ce 01       	movw	r24, r28
     ae2:	01 96       	adiw	r24, 0x01	; 1
     ae4:	09 d0       	rcall	.+18     	; 0xaf8 <vfprintf>
     ae6:	2f 81       	ldd	r18, Y+7	; 0x07
     ae8:	38 85       	ldd	r19, Y+8	; 0x08
     aea:	f8 01       	movw	r30, r16
     aec:	e2 0f       	add	r30, r18
     aee:	f3 1f       	adc	r31, r19
     af0:	10 82       	st	Z, r1
     af2:	2e 96       	adiw	r28, 0x0e	; 14
     af4:	e4 e0       	ldi	r30, 0x04	; 4
     af6:	e7 c3       	rjmp	.+1998   	; 0x12c6 <__epilogue_restores__+0x1c>

00000af8 <vfprintf>:
     af8:	ac e0       	ldi	r26, 0x0C	; 12
     afa:	b0 e0       	ldi	r27, 0x00	; 0
     afc:	e1 e8       	ldi	r30, 0x81	; 129
     afe:	f5 e0       	ldi	r31, 0x05	; 5
     b00:	b8 c3       	rjmp	.+1904   	; 0x1272 <__prologue_saves__>
     b02:	7c 01       	movw	r14, r24
     b04:	6b 01       	movw	r12, r22
     b06:	8a 01       	movw	r16, r20
     b08:	fc 01       	movw	r30, r24
     b0a:	17 82       	std	Z+7, r1	; 0x07
     b0c:	16 82       	std	Z+6, r1	; 0x06
     b0e:	83 81       	ldd	r24, Z+3	; 0x03
     b10:	81 ff       	sbrs	r24, 1
     b12:	b0 c1       	rjmp	.+864    	; 0xe74 <vfprintf+0x37c>
     b14:	ce 01       	movw	r24, r28
     b16:	01 96       	adiw	r24, 0x01	; 1
     b18:	4c 01       	movw	r8, r24
     b1a:	f7 01       	movw	r30, r14
     b1c:	93 81       	ldd	r25, Z+3	; 0x03
     b1e:	f6 01       	movw	r30, r12
     b20:	93 fd       	sbrc	r25, 3
     b22:	85 91       	lpm	r24, Z+
     b24:	93 ff       	sbrs	r25, 3
     b26:	81 91       	ld	r24, Z+
     b28:	6f 01       	movw	r12, r30
     b2a:	88 23       	and	r24, r24
     b2c:	09 f4       	brne	.+2      	; 0xb30 <vfprintf+0x38>
     b2e:	9e c1       	rjmp	.+828    	; 0xe6c <vfprintf+0x374>
     b30:	85 32       	cpi	r24, 0x25	; 37
     b32:	39 f4       	brne	.+14     	; 0xb42 <vfprintf+0x4a>
     b34:	93 fd       	sbrc	r25, 3
     b36:	85 91       	lpm	r24, Z+
     b38:	93 ff       	sbrs	r25, 3
     b3a:	81 91       	ld	r24, Z+
     b3c:	6f 01       	movw	r12, r30
     b3e:	85 32       	cpi	r24, 0x25	; 37
     b40:	21 f4       	brne	.+8      	; 0xb4a <vfprintf+0x52>
     b42:	b7 01       	movw	r22, r14
     b44:	90 e0       	ldi	r25, 0x00	; 0
     b46:	ff d2       	rcall	.+1534   	; 0x1146 <fputc>
     b48:	e8 cf       	rjmp	.-48     	; 0xb1a <vfprintf+0x22>
     b4a:	51 2c       	mov	r5, r1
     b4c:	31 2c       	mov	r3, r1
     b4e:	20 e0       	ldi	r18, 0x00	; 0
     b50:	20 32       	cpi	r18, 0x20	; 32
     b52:	a0 f4       	brcc	.+40     	; 0xb7c <vfprintf+0x84>
     b54:	8b 32       	cpi	r24, 0x2B	; 43
     b56:	69 f0       	breq	.+26     	; 0xb72 <vfprintf+0x7a>
     b58:	30 f4       	brcc	.+12     	; 0xb66 <vfprintf+0x6e>
     b5a:	80 32       	cpi	r24, 0x20	; 32
     b5c:	59 f0       	breq	.+22     	; 0xb74 <vfprintf+0x7c>
     b5e:	83 32       	cpi	r24, 0x23	; 35
     b60:	69 f4       	brne	.+26     	; 0xb7c <vfprintf+0x84>
     b62:	20 61       	ori	r18, 0x10	; 16
     b64:	2c c0       	rjmp	.+88     	; 0xbbe <vfprintf+0xc6>
     b66:	8d 32       	cpi	r24, 0x2D	; 45
     b68:	39 f0       	breq	.+14     	; 0xb78 <vfprintf+0x80>
     b6a:	80 33       	cpi	r24, 0x30	; 48
     b6c:	39 f4       	brne	.+14     	; 0xb7c <vfprintf+0x84>
     b6e:	21 60       	ori	r18, 0x01	; 1
     b70:	26 c0       	rjmp	.+76     	; 0xbbe <vfprintf+0xc6>
     b72:	22 60       	ori	r18, 0x02	; 2
     b74:	24 60       	ori	r18, 0x04	; 4
     b76:	23 c0       	rjmp	.+70     	; 0xbbe <vfprintf+0xc6>
     b78:	28 60       	ori	r18, 0x08	; 8
     b7a:	21 c0       	rjmp	.+66     	; 0xbbe <vfprintf+0xc6>
     b7c:	27 fd       	sbrc	r18, 7
     b7e:	27 c0       	rjmp	.+78     	; 0xbce <vfprintf+0xd6>
     b80:	30 ed       	ldi	r19, 0xD0	; 208
     b82:	38 0f       	add	r19, r24
     b84:	3a 30       	cpi	r19, 0x0A	; 10
     b86:	78 f4       	brcc	.+30     	; 0xba6 <vfprintf+0xae>
     b88:	26 ff       	sbrs	r18, 6
     b8a:	06 c0       	rjmp	.+12     	; 0xb98 <vfprintf+0xa0>
     b8c:	fa e0       	ldi	r31, 0x0A	; 10
     b8e:	5f 9e       	mul	r5, r31
     b90:	30 0d       	add	r19, r0
     b92:	11 24       	eor	r1, r1
     b94:	53 2e       	mov	r5, r19
     b96:	13 c0       	rjmp	.+38     	; 0xbbe <vfprintf+0xc6>
     b98:	8a e0       	ldi	r24, 0x0A	; 10
     b9a:	38 9e       	mul	r3, r24
     b9c:	30 0d       	add	r19, r0
     b9e:	11 24       	eor	r1, r1
     ba0:	33 2e       	mov	r3, r19
     ba2:	20 62       	ori	r18, 0x20	; 32
     ba4:	0c c0       	rjmp	.+24     	; 0xbbe <vfprintf+0xc6>
     ba6:	8e 32       	cpi	r24, 0x2E	; 46
     ba8:	21 f4       	brne	.+8      	; 0xbb2 <vfprintf+0xba>
     baa:	26 fd       	sbrc	r18, 6
     bac:	5f c1       	rjmp	.+702    	; 0xe6c <vfprintf+0x374>
     bae:	20 64       	ori	r18, 0x40	; 64
     bb0:	06 c0       	rjmp	.+12     	; 0xbbe <vfprintf+0xc6>
     bb2:	8c 36       	cpi	r24, 0x6C	; 108
     bb4:	11 f4       	brne	.+4      	; 0xbba <vfprintf+0xc2>
     bb6:	20 68       	ori	r18, 0x80	; 128
     bb8:	02 c0       	rjmp	.+4      	; 0xbbe <vfprintf+0xc6>
     bba:	88 36       	cpi	r24, 0x68	; 104
     bbc:	41 f4       	brne	.+16     	; 0xbce <vfprintf+0xd6>
     bbe:	f6 01       	movw	r30, r12
     bc0:	93 fd       	sbrc	r25, 3
     bc2:	85 91       	lpm	r24, Z+
     bc4:	93 ff       	sbrs	r25, 3
     bc6:	81 91       	ld	r24, Z+
     bc8:	6f 01       	movw	r12, r30
     bca:	81 11       	cpse	r24, r1
     bcc:	c1 cf       	rjmp	.-126    	; 0xb50 <vfprintf+0x58>
     bce:	98 2f       	mov	r25, r24
     bd0:	9f 7d       	andi	r25, 0xDF	; 223
     bd2:	95 54       	subi	r25, 0x45	; 69
     bd4:	93 30       	cpi	r25, 0x03	; 3
     bd6:	28 f4       	brcc	.+10     	; 0xbe2 <vfprintf+0xea>
     bd8:	0c 5f       	subi	r16, 0xFC	; 252
     bda:	1f 4f       	sbci	r17, 0xFF	; 255
     bdc:	ff e3       	ldi	r31, 0x3F	; 63
     bde:	f9 83       	std	Y+1, r31	; 0x01
     be0:	0d c0       	rjmp	.+26     	; 0xbfc <vfprintf+0x104>
     be2:	83 36       	cpi	r24, 0x63	; 99
     be4:	31 f0       	breq	.+12     	; 0xbf2 <vfprintf+0xfa>
     be6:	83 37       	cpi	r24, 0x73	; 115
     be8:	71 f0       	breq	.+28     	; 0xc06 <vfprintf+0x10e>
     bea:	83 35       	cpi	r24, 0x53	; 83
     bec:	09 f0       	breq	.+2      	; 0xbf0 <vfprintf+0xf8>
     bee:	57 c0       	rjmp	.+174    	; 0xc9e <vfprintf+0x1a6>
     bf0:	21 c0       	rjmp	.+66     	; 0xc34 <vfprintf+0x13c>
     bf2:	f8 01       	movw	r30, r16
     bf4:	80 81       	ld	r24, Z
     bf6:	89 83       	std	Y+1, r24	; 0x01
     bf8:	0e 5f       	subi	r16, 0xFE	; 254
     bfa:	1f 4f       	sbci	r17, 0xFF	; 255
     bfc:	44 24       	eor	r4, r4
     bfe:	43 94       	inc	r4
     c00:	51 2c       	mov	r5, r1
     c02:	54 01       	movw	r10, r8
     c04:	14 c0       	rjmp	.+40     	; 0xc2e <vfprintf+0x136>
     c06:	38 01       	movw	r6, r16
     c08:	f2 e0       	ldi	r31, 0x02	; 2
     c0a:	6f 0e       	add	r6, r31
     c0c:	71 1c       	adc	r7, r1
     c0e:	f8 01       	movw	r30, r16
     c10:	a0 80       	ld	r10, Z
     c12:	b1 80       	ldd	r11, Z+1	; 0x01
     c14:	26 ff       	sbrs	r18, 6
     c16:	03 c0       	rjmp	.+6      	; 0xc1e <vfprintf+0x126>
     c18:	65 2d       	mov	r22, r5
     c1a:	70 e0       	ldi	r23, 0x00	; 0
     c1c:	02 c0       	rjmp	.+4      	; 0xc22 <vfprintf+0x12a>
     c1e:	6f ef       	ldi	r22, 0xFF	; 255
     c20:	7f ef       	ldi	r23, 0xFF	; 255
     c22:	c5 01       	movw	r24, r10
     c24:	2c 87       	std	Y+12, r18	; 0x0c
     c26:	84 d2       	rcall	.+1288   	; 0x1130 <strnlen>
     c28:	2c 01       	movw	r4, r24
     c2a:	83 01       	movw	r16, r6
     c2c:	2c 85       	ldd	r18, Y+12	; 0x0c
     c2e:	2f 77       	andi	r18, 0x7F	; 127
     c30:	22 2e       	mov	r2, r18
     c32:	16 c0       	rjmp	.+44     	; 0xc60 <vfprintf+0x168>
     c34:	38 01       	movw	r6, r16
     c36:	f2 e0       	ldi	r31, 0x02	; 2
     c38:	6f 0e       	add	r6, r31
     c3a:	71 1c       	adc	r7, r1
     c3c:	f8 01       	movw	r30, r16
     c3e:	a0 80       	ld	r10, Z
     c40:	b1 80       	ldd	r11, Z+1	; 0x01
     c42:	26 ff       	sbrs	r18, 6
     c44:	03 c0       	rjmp	.+6      	; 0xc4c <vfprintf+0x154>
     c46:	65 2d       	mov	r22, r5
     c48:	70 e0       	ldi	r23, 0x00	; 0
     c4a:	02 c0       	rjmp	.+4      	; 0xc50 <vfprintf+0x158>
     c4c:	6f ef       	ldi	r22, 0xFF	; 255
     c4e:	7f ef       	ldi	r23, 0xFF	; 255
     c50:	c5 01       	movw	r24, r10
     c52:	2c 87       	std	Y+12, r18	; 0x0c
     c54:	5b d2       	rcall	.+1206   	; 0x110c <strnlen_P>
     c56:	2c 01       	movw	r4, r24
     c58:	2c 85       	ldd	r18, Y+12	; 0x0c
     c5a:	20 68       	ori	r18, 0x80	; 128
     c5c:	22 2e       	mov	r2, r18
     c5e:	83 01       	movw	r16, r6
     c60:	23 fc       	sbrc	r2, 3
     c62:	19 c0       	rjmp	.+50     	; 0xc96 <vfprintf+0x19e>
     c64:	83 2d       	mov	r24, r3
     c66:	90 e0       	ldi	r25, 0x00	; 0
     c68:	48 16       	cp	r4, r24
     c6a:	59 06       	cpc	r5, r25
     c6c:	a0 f4       	brcc	.+40     	; 0xc96 <vfprintf+0x19e>
     c6e:	b7 01       	movw	r22, r14
     c70:	80 e2       	ldi	r24, 0x20	; 32
     c72:	90 e0       	ldi	r25, 0x00	; 0
     c74:	68 d2       	rcall	.+1232   	; 0x1146 <fputc>
     c76:	3a 94       	dec	r3
     c78:	f5 cf       	rjmp	.-22     	; 0xc64 <vfprintf+0x16c>
     c7a:	f5 01       	movw	r30, r10
     c7c:	27 fc       	sbrc	r2, 7
     c7e:	85 91       	lpm	r24, Z+
     c80:	27 fe       	sbrs	r2, 7
     c82:	81 91       	ld	r24, Z+
     c84:	5f 01       	movw	r10, r30
     c86:	b7 01       	movw	r22, r14
     c88:	90 e0       	ldi	r25, 0x00	; 0
     c8a:	5d d2       	rcall	.+1210   	; 0x1146 <fputc>
     c8c:	31 10       	cpse	r3, r1
     c8e:	3a 94       	dec	r3
     c90:	f1 e0       	ldi	r31, 0x01	; 1
     c92:	4f 1a       	sub	r4, r31
     c94:	51 08       	sbc	r5, r1
     c96:	41 14       	cp	r4, r1
     c98:	51 04       	cpc	r5, r1
     c9a:	79 f7       	brne	.-34     	; 0xc7a <vfprintf+0x182>
     c9c:	de c0       	rjmp	.+444    	; 0xe5a <vfprintf+0x362>
     c9e:	84 36       	cpi	r24, 0x64	; 100
     ca0:	11 f0       	breq	.+4      	; 0xca6 <vfprintf+0x1ae>
     ca2:	89 36       	cpi	r24, 0x69	; 105
     ca4:	31 f5       	brne	.+76     	; 0xcf2 <vfprintf+0x1fa>
     ca6:	f8 01       	movw	r30, r16
     ca8:	27 ff       	sbrs	r18, 7
     caa:	07 c0       	rjmp	.+14     	; 0xcba <vfprintf+0x1c2>
     cac:	60 81       	ld	r22, Z
     cae:	71 81       	ldd	r23, Z+1	; 0x01
     cb0:	82 81       	ldd	r24, Z+2	; 0x02
     cb2:	93 81       	ldd	r25, Z+3	; 0x03
     cb4:	0c 5f       	subi	r16, 0xFC	; 252
     cb6:	1f 4f       	sbci	r17, 0xFF	; 255
     cb8:	08 c0       	rjmp	.+16     	; 0xcca <vfprintf+0x1d2>
     cba:	60 81       	ld	r22, Z
     cbc:	71 81       	ldd	r23, Z+1	; 0x01
     cbe:	07 2e       	mov	r0, r23
     cc0:	00 0c       	add	r0, r0
     cc2:	88 0b       	sbc	r24, r24
     cc4:	99 0b       	sbc	r25, r25
     cc6:	0e 5f       	subi	r16, 0xFE	; 254
     cc8:	1f 4f       	sbci	r17, 0xFF	; 255
     cca:	2f 76       	andi	r18, 0x6F	; 111
     ccc:	72 2e       	mov	r7, r18
     cce:	97 ff       	sbrs	r25, 7
     cd0:	09 c0       	rjmp	.+18     	; 0xce4 <vfprintf+0x1ec>
     cd2:	90 95       	com	r25
     cd4:	80 95       	com	r24
     cd6:	70 95       	com	r23
     cd8:	61 95       	neg	r22
     cda:	7f 4f       	sbci	r23, 0xFF	; 255
     cdc:	8f 4f       	sbci	r24, 0xFF	; 255
     cde:	9f 4f       	sbci	r25, 0xFF	; 255
     ce0:	20 68       	ori	r18, 0x80	; 128
     ce2:	72 2e       	mov	r7, r18
     ce4:	2a e0       	ldi	r18, 0x0A	; 10
     ce6:	30 e0       	ldi	r19, 0x00	; 0
     ce8:	a4 01       	movw	r20, r8
     cea:	65 d2       	rcall	.+1226   	; 0x11b6 <__ultoa_invert>
     cec:	a8 2e       	mov	r10, r24
     cee:	a8 18       	sub	r10, r8
     cf0:	43 c0       	rjmp	.+134    	; 0xd78 <vfprintf+0x280>
     cf2:	85 37       	cpi	r24, 0x75	; 117
     cf4:	29 f4       	brne	.+10     	; 0xd00 <vfprintf+0x208>
     cf6:	2f 7e       	andi	r18, 0xEF	; 239
     cf8:	b2 2e       	mov	r11, r18
     cfa:	2a e0       	ldi	r18, 0x0A	; 10
     cfc:	30 e0       	ldi	r19, 0x00	; 0
     cfe:	25 c0       	rjmp	.+74     	; 0xd4a <vfprintf+0x252>
     d00:	f2 2f       	mov	r31, r18
     d02:	f9 7f       	andi	r31, 0xF9	; 249
     d04:	bf 2e       	mov	r11, r31
     d06:	8f 36       	cpi	r24, 0x6F	; 111
     d08:	c1 f0       	breq	.+48     	; 0xd3a <vfprintf+0x242>
     d0a:	18 f4       	brcc	.+6      	; 0xd12 <vfprintf+0x21a>
     d0c:	88 35       	cpi	r24, 0x58	; 88
     d0e:	79 f0       	breq	.+30     	; 0xd2e <vfprintf+0x236>
     d10:	ad c0       	rjmp	.+346    	; 0xe6c <vfprintf+0x374>
     d12:	80 37       	cpi	r24, 0x70	; 112
     d14:	19 f0       	breq	.+6      	; 0xd1c <vfprintf+0x224>
     d16:	88 37       	cpi	r24, 0x78	; 120
     d18:	21 f0       	breq	.+8      	; 0xd22 <vfprintf+0x22a>
     d1a:	a8 c0       	rjmp	.+336    	; 0xe6c <vfprintf+0x374>
     d1c:	2f 2f       	mov	r18, r31
     d1e:	20 61       	ori	r18, 0x10	; 16
     d20:	b2 2e       	mov	r11, r18
     d22:	b4 fe       	sbrs	r11, 4
     d24:	0d c0       	rjmp	.+26     	; 0xd40 <vfprintf+0x248>
     d26:	8b 2d       	mov	r24, r11
     d28:	84 60       	ori	r24, 0x04	; 4
     d2a:	b8 2e       	mov	r11, r24
     d2c:	09 c0       	rjmp	.+18     	; 0xd40 <vfprintf+0x248>
     d2e:	24 ff       	sbrs	r18, 4
     d30:	0a c0       	rjmp	.+20     	; 0xd46 <vfprintf+0x24e>
     d32:	9f 2f       	mov	r25, r31
     d34:	96 60       	ori	r25, 0x06	; 6
     d36:	b9 2e       	mov	r11, r25
     d38:	06 c0       	rjmp	.+12     	; 0xd46 <vfprintf+0x24e>
     d3a:	28 e0       	ldi	r18, 0x08	; 8
     d3c:	30 e0       	ldi	r19, 0x00	; 0
     d3e:	05 c0       	rjmp	.+10     	; 0xd4a <vfprintf+0x252>
     d40:	20 e1       	ldi	r18, 0x10	; 16
     d42:	30 e0       	ldi	r19, 0x00	; 0
     d44:	02 c0       	rjmp	.+4      	; 0xd4a <vfprintf+0x252>
     d46:	20 e1       	ldi	r18, 0x10	; 16
     d48:	32 e0       	ldi	r19, 0x02	; 2
     d4a:	f8 01       	movw	r30, r16
     d4c:	b7 fe       	sbrs	r11, 7
     d4e:	07 c0       	rjmp	.+14     	; 0xd5e <vfprintf+0x266>
     d50:	60 81       	ld	r22, Z
     d52:	71 81       	ldd	r23, Z+1	; 0x01
     d54:	82 81       	ldd	r24, Z+2	; 0x02
     d56:	93 81       	ldd	r25, Z+3	; 0x03
     d58:	0c 5f       	subi	r16, 0xFC	; 252
     d5a:	1f 4f       	sbci	r17, 0xFF	; 255
     d5c:	06 c0       	rjmp	.+12     	; 0xd6a <vfprintf+0x272>
     d5e:	60 81       	ld	r22, Z
     d60:	71 81       	ldd	r23, Z+1	; 0x01
     d62:	80 e0       	ldi	r24, 0x00	; 0
     d64:	90 e0       	ldi	r25, 0x00	; 0
     d66:	0e 5f       	subi	r16, 0xFE	; 254
     d68:	1f 4f       	sbci	r17, 0xFF	; 255
     d6a:	a4 01       	movw	r20, r8
     d6c:	24 d2       	rcall	.+1096   	; 0x11b6 <__ultoa_invert>
     d6e:	a8 2e       	mov	r10, r24
     d70:	a8 18       	sub	r10, r8
     d72:	fb 2d       	mov	r31, r11
     d74:	ff 77       	andi	r31, 0x7F	; 127
     d76:	7f 2e       	mov	r7, r31
     d78:	76 fe       	sbrs	r7, 6
     d7a:	0b c0       	rjmp	.+22     	; 0xd92 <vfprintf+0x29a>
     d7c:	37 2d       	mov	r19, r7
     d7e:	3e 7f       	andi	r19, 0xFE	; 254
     d80:	a5 14       	cp	r10, r5
     d82:	50 f4       	brcc	.+20     	; 0xd98 <vfprintf+0x2a0>
     d84:	74 fe       	sbrs	r7, 4
     d86:	0a c0       	rjmp	.+20     	; 0xd9c <vfprintf+0x2a4>
     d88:	72 fc       	sbrc	r7, 2
     d8a:	08 c0       	rjmp	.+16     	; 0xd9c <vfprintf+0x2a4>
     d8c:	37 2d       	mov	r19, r7
     d8e:	3e 7e       	andi	r19, 0xEE	; 238
     d90:	05 c0       	rjmp	.+10     	; 0xd9c <vfprintf+0x2a4>
     d92:	ba 2c       	mov	r11, r10
     d94:	37 2d       	mov	r19, r7
     d96:	03 c0       	rjmp	.+6      	; 0xd9e <vfprintf+0x2a6>
     d98:	ba 2c       	mov	r11, r10
     d9a:	01 c0       	rjmp	.+2      	; 0xd9e <vfprintf+0x2a6>
     d9c:	b5 2c       	mov	r11, r5
     d9e:	34 ff       	sbrs	r19, 4
     da0:	0d c0       	rjmp	.+26     	; 0xdbc <vfprintf+0x2c4>
     da2:	fe 01       	movw	r30, r28
     da4:	ea 0d       	add	r30, r10
     da6:	f1 1d       	adc	r31, r1
     da8:	80 81       	ld	r24, Z
     daa:	80 33       	cpi	r24, 0x30	; 48
     dac:	11 f4       	brne	.+4      	; 0xdb2 <vfprintf+0x2ba>
     dae:	39 7e       	andi	r19, 0xE9	; 233
     db0:	09 c0       	rjmp	.+18     	; 0xdc4 <vfprintf+0x2cc>
     db2:	32 ff       	sbrs	r19, 2
     db4:	06 c0       	rjmp	.+12     	; 0xdc2 <vfprintf+0x2ca>
     db6:	b3 94       	inc	r11
     db8:	b3 94       	inc	r11
     dba:	04 c0       	rjmp	.+8      	; 0xdc4 <vfprintf+0x2cc>
     dbc:	83 2f       	mov	r24, r19
     dbe:	86 78       	andi	r24, 0x86	; 134
     dc0:	09 f0       	breq	.+2      	; 0xdc4 <vfprintf+0x2cc>
     dc2:	b3 94       	inc	r11
     dc4:	33 fd       	sbrc	r19, 3
     dc6:	12 c0       	rjmp	.+36     	; 0xdec <vfprintf+0x2f4>
     dc8:	30 ff       	sbrs	r19, 0
     dca:	06 c0       	rjmp	.+12     	; 0xdd8 <vfprintf+0x2e0>
     dcc:	5a 2c       	mov	r5, r10
     dce:	b3 14       	cp	r11, r3
     dd0:	18 f4       	brcc	.+6      	; 0xdd8 <vfprintf+0x2e0>
     dd2:	53 0c       	add	r5, r3
     dd4:	5b 18       	sub	r5, r11
     dd6:	b3 2c       	mov	r11, r3
     dd8:	b3 14       	cp	r11, r3
     dda:	60 f4       	brcc	.+24     	; 0xdf4 <vfprintf+0x2fc>
     ddc:	b7 01       	movw	r22, r14
     dde:	80 e2       	ldi	r24, 0x20	; 32
     de0:	90 e0       	ldi	r25, 0x00	; 0
     de2:	3c 87       	std	Y+12, r19	; 0x0c
     de4:	b0 d1       	rcall	.+864    	; 0x1146 <fputc>
     de6:	b3 94       	inc	r11
     de8:	3c 85       	ldd	r19, Y+12	; 0x0c
     dea:	f6 cf       	rjmp	.-20     	; 0xdd8 <vfprintf+0x2e0>
     dec:	b3 14       	cp	r11, r3
     dee:	10 f4       	brcc	.+4      	; 0xdf4 <vfprintf+0x2fc>
     df0:	3b 18       	sub	r3, r11
     df2:	01 c0       	rjmp	.+2      	; 0xdf6 <vfprintf+0x2fe>
     df4:	31 2c       	mov	r3, r1
     df6:	34 ff       	sbrs	r19, 4
     df8:	11 c0       	rjmp	.+34     	; 0xe1c <vfprintf+0x324>
     dfa:	b7 01       	movw	r22, r14
     dfc:	80 e3       	ldi	r24, 0x30	; 48
     dfe:	90 e0       	ldi	r25, 0x00	; 0
     e00:	3c 87       	std	Y+12, r19	; 0x0c
     e02:	a1 d1       	rcall	.+834    	; 0x1146 <fputc>
     e04:	3c 85       	ldd	r19, Y+12	; 0x0c
     e06:	32 ff       	sbrs	r19, 2
     e08:	16 c0       	rjmp	.+44     	; 0xe36 <vfprintf+0x33e>
     e0a:	31 fd       	sbrc	r19, 1
     e0c:	03 c0       	rjmp	.+6      	; 0xe14 <vfprintf+0x31c>
     e0e:	88 e7       	ldi	r24, 0x78	; 120
     e10:	90 e0       	ldi	r25, 0x00	; 0
     e12:	02 c0       	rjmp	.+4      	; 0xe18 <vfprintf+0x320>
     e14:	88 e5       	ldi	r24, 0x58	; 88
     e16:	90 e0       	ldi	r25, 0x00	; 0
     e18:	b7 01       	movw	r22, r14
     e1a:	0c c0       	rjmp	.+24     	; 0xe34 <vfprintf+0x33c>
     e1c:	83 2f       	mov	r24, r19
     e1e:	86 78       	andi	r24, 0x86	; 134
     e20:	51 f0       	breq	.+20     	; 0xe36 <vfprintf+0x33e>
     e22:	31 ff       	sbrs	r19, 1
     e24:	02 c0       	rjmp	.+4      	; 0xe2a <vfprintf+0x332>
     e26:	8b e2       	ldi	r24, 0x2B	; 43
     e28:	01 c0       	rjmp	.+2      	; 0xe2c <vfprintf+0x334>
     e2a:	80 e2       	ldi	r24, 0x20	; 32
     e2c:	37 fd       	sbrc	r19, 7
     e2e:	8d e2       	ldi	r24, 0x2D	; 45
     e30:	b7 01       	movw	r22, r14
     e32:	90 e0       	ldi	r25, 0x00	; 0
     e34:	88 d1       	rcall	.+784    	; 0x1146 <fputc>
     e36:	a5 14       	cp	r10, r5
     e38:	30 f4       	brcc	.+12     	; 0xe46 <vfprintf+0x34e>
     e3a:	b7 01       	movw	r22, r14
     e3c:	80 e3       	ldi	r24, 0x30	; 48
     e3e:	90 e0       	ldi	r25, 0x00	; 0
     e40:	82 d1       	rcall	.+772    	; 0x1146 <fputc>
     e42:	5a 94       	dec	r5
     e44:	f8 cf       	rjmp	.-16     	; 0xe36 <vfprintf+0x33e>
     e46:	aa 94       	dec	r10
     e48:	f4 01       	movw	r30, r8
     e4a:	ea 0d       	add	r30, r10
     e4c:	f1 1d       	adc	r31, r1
     e4e:	80 81       	ld	r24, Z
     e50:	b7 01       	movw	r22, r14
     e52:	90 e0       	ldi	r25, 0x00	; 0
     e54:	78 d1       	rcall	.+752    	; 0x1146 <fputc>
     e56:	a1 10       	cpse	r10, r1
     e58:	f6 cf       	rjmp	.-20     	; 0xe46 <vfprintf+0x34e>
     e5a:	33 20       	and	r3, r3
     e5c:	09 f4       	brne	.+2      	; 0xe60 <vfprintf+0x368>
     e5e:	5d ce       	rjmp	.-838    	; 0xb1a <vfprintf+0x22>
     e60:	b7 01       	movw	r22, r14
     e62:	80 e2       	ldi	r24, 0x20	; 32
     e64:	90 e0       	ldi	r25, 0x00	; 0
     e66:	6f d1       	rcall	.+734    	; 0x1146 <fputc>
     e68:	3a 94       	dec	r3
     e6a:	f7 cf       	rjmp	.-18     	; 0xe5a <vfprintf+0x362>
     e6c:	f7 01       	movw	r30, r14
     e6e:	86 81       	ldd	r24, Z+6	; 0x06
     e70:	97 81       	ldd	r25, Z+7	; 0x07
     e72:	02 c0       	rjmp	.+4      	; 0xe78 <vfprintf+0x380>
     e74:	8f ef       	ldi	r24, 0xFF	; 255
     e76:	9f ef       	ldi	r25, 0xFF	; 255
     e78:	2c 96       	adiw	r28, 0x0c	; 12
     e7a:	e2 e1       	ldi	r30, 0x12	; 18
     e7c:	16 c2       	rjmp	.+1068   	; 0x12aa <__epilogue_restores__>

00000e7e <calloc>:
     e7e:	0f 93       	push	r16
     e80:	1f 93       	push	r17
     e82:	cf 93       	push	r28
     e84:	df 93       	push	r29
     e86:	86 9f       	mul	r24, r22
     e88:	80 01       	movw	r16, r0
     e8a:	87 9f       	mul	r24, r23
     e8c:	10 0d       	add	r17, r0
     e8e:	96 9f       	mul	r25, r22
     e90:	10 0d       	add	r17, r0
     e92:	11 24       	eor	r1, r1
     e94:	c8 01       	movw	r24, r16
     e96:	0d d0       	rcall	.+26     	; 0xeb2 <malloc>
     e98:	ec 01       	movw	r28, r24
     e9a:	00 97       	sbiw	r24, 0x00	; 0
     e9c:	21 f0       	breq	.+8      	; 0xea6 <calloc+0x28>
     e9e:	a8 01       	movw	r20, r16
     ea0:	60 e0       	ldi	r22, 0x00	; 0
     ea2:	70 e0       	ldi	r23, 0x00	; 0
     ea4:	3e d1       	rcall	.+636    	; 0x1122 <memset>
     ea6:	ce 01       	movw	r24, r28
     ea8:	df 91       	pop	r29
     eaa:	cf 91       	pop	r28
     eac:	1f 91       	pop	r17
     eae:	0f 91       	pop	r16
     eb0:	08 95       	ret

00000eb2 <malloc>:
     eb2:	cf 93       	push	r28
     eb4:	df 93       	push	r29
     eb6:	82 30       	cpi	r24, 0x02	; 2
     eb8:	91 05       	cpc	r25, r1
     eba:	10 f4       	brcc	.+4      	; 0xec0 <malloc+0xe>
     ebc:	82 e0       	ldi	r24, 0x02	; 2
     ebe:	90 e0       	ldi	r25, 0x00	; 0
     ec0:	e0 91 7d 03 	lds	r30, 0x037D
     ec4:	f0 91 7e 03 	lds	r31, 0x037E
     ec8:	20 e0       	ldi	r18, 0x00	; 0
     eca:	30 e0       	ldi	r19, 0x00	; 0
     ecc:	c0 e0       	ldi	r28, 0x00	; 0
     ece:	d0 e0       	ldi	r29, 0x00	; 0
     ed0:	30 97       	sbiw	r30, 0x00	; 0
     ed2:	11 f1       	breq	.+68     	; 0xf18 <malloc+0x66>
     ed4:	40 81       	ld	r20, Z
     ed6:	51 81       	ldd	r21, Z+1	; 0x01
     ed8:	48 17       	cp	r20, r24
     eda:	59 07       	cpc	r21, r25
     edc:	c0 f0       	brcs	.+48     	; 0xf0e <malloc+0x5c>
     ede:	48 17       	cp	r20, r24
     ee0:	59 07       	cpc	r21, r25
     ee2:	61 f4       	brne	.+24     	; 0xefc <malloc+0x4a>
     ee4:	82 81       	ldd	r24, Z+2	; 0x02
     ee6:	93 81       	ldd	r25, Z+3	; 0x03
     ee8:	20 97       	sbiw	r28, 0x00	; 0
     eea:	19 f0       	breq	.+6      	; 0xef2 <malloc+0x40>
     eec:	9b 83       	std	Y+3, r25	; 0x03
     eee:	8a 83       	std	Y+2, r24	; 0x02
     ef0:	2b c0       	rjmp	.+86     	; 0xf48 <malloc+0x96>
     ef2:	90 93 7e 03 	sts	0x037E, r25
     ef6:	80 93 7d 03 	sts	0x037D, r24
     efa:	26 c0       	rjmp	.+76     	; 0xf48 <malloc+0x96>
     efc:	21 15       	cp	r18, r1
     efe:	31 05       	cpc	r19, r1
     f00:	19 f0       	breq	.+6      	; 0xf08 <malloc+0x56>
     f02:	42 17       	cp	r20, r18
     f04:	53 07       	cpc	r21, r19
     f06:	18 f4       	brcc	.+6      	; 0xf0e <malloc+0x5c>
     f08:	9a 01       	movw	r18, r20
     f0a:	be 01       	movw	r22, r28
     f0c:	df 01       	movw	r26, r30
     f0e:	ef 01       	movw	r28, r30
     f10:	02 80       	ldd	r0, Z+2	; 0x02
     f12:	f3 81       	ldd	r31, Z+3	; 0x03
     f14:	e0 2d       	mov	r30, r0
     f16:	dc cf       	rjmp	.-72     	; 0xed0 <malloc+0x1e>
     f18:	21 15       	cp	r18, r1
     f1a:	31 05       	cpc	r19, r1
     f1c:	09 f1       	breq	.+66     	; 0xf60 <malloc+0xae>
     f1e:	28 1b       	sub	r18, r24
     f20:	39 0b       	sbc	r19, r25
     f22:	24 30       	cpi	r18, 0x04	; 4
     f24:	31 05       	cpc	r19, r1
     f26:	90 f4       	brcc	.+36     	; 0xf4c <malloc+0x9a>
     f28:	12 96       	adiw	r26, 0x02	; 2
     f2a:	8d 91       	ld	r24, X+
     f2c:	9c 91       	ld	r25, X
     f2e:	13 97       	sbiw	r26, 0x03	; 3
     f30:	61 15       	cp	r22, r1
     f32:	71 05       	cpc	r23, r1
     f34:	21 f0       	breq	.+8      	; 0xf3e <malloc+0x8c>
     f36:	fb 01       	movw	r30, r22
     f38:	93 83       	std	Z+3, r25	; 0x03
     f3a:	82 83       	std	Z+2, r24	; 0x02
     f3c:	04 c0       	rjmp	.+8      	; 0xf46 <malloc+0x94>
     f3e:	90 93 7e 03 	sts	0x037E, r25
     f42:	80 93 7d 03 	sts	0x037D, r24
     f46:	fd 01       	movw	r30, r26
     f48:	32 96       	adiw	r30, 0x02	; 2
     f4a:	44 c0       	rjmp	.+136    	; 0xfd4 <malloc+0x122>
     f4c:	fd 01       	movw	r30, r26
     f4e:	e2 0f       	add	r30, r18
     f50:	f3 1f       	adc	r31, r19
     f52:	81 93       	st	Z+, r24
     f54:	91 93       	st	Z+, r25
     f56:	22 50       	subi	r18, 0x02	; 2
     f58:	31 09       	sbc	r19, r1
     f5a:	2d 93       	st	X+, r18
     f5c:	3c 93       	st	X, r19
     f5e:	3a c0       	rjmp	.+116    	; 0xfd4 <malloc+0x122>
     f60:	20 91 7b 03 	lds	r18, 0x037B
     f64:	30 91 7c 03 	lds	r19, 0x037C
     f68:	23 2b       	or	r18, r19
     f6a:	41 f4       	brne	.+16     	; 0xf7c <malloc+0xca>
     f6c:	20 91 02 01 	lds	r18, 0x0102
     f70:	30 91 03 01 	lds	r19, 0x0103
     f74:	30 93 7c 03 	sts	0x037C, r19
     f78:	20 93 7b 03 	sts	0x037B, r18
     f7c:	20 91 00 01 	lds	r18, 0x0100
     f80:	30 91 01 01 	lds	r19, 0x0101
     f84:	21 15       	cp	r18, r1
     f86:	31 05       	cpc	r19, r1
     f88:	41 f4       	brne	.+16     	; 0xf9a <malloc+0xe8>
     f8a:	2d b7       	in	r18, 0x3d	; 61
     f8c:	3e b7       	in	r19, 0x3e	; 62
     f8e:	40 91 04 01 	lds	r20, 0x0104
     f92:	50 91 05 01 	lds	r21, 0x0105
     f96:	24 1b       	sub	r18, r20
     f98:	35 0b       	sbc	r19, r21
     f9a:	e0 91 7b 03 	lds	r30, 0x037B
     f9e:	f0 91 7c 03 	lds	r31, 0x037C
     fa2:	e2 17       	cp	r30, r18
     fa4:	f3 07       	cpc	r31, r19
     fa6:	a0 f4       	brcc	.+40     	; 0xfd0 <malloc+0x11e>
     fa8:	2e 1b       	sub	r18, r30
     faa:	3f 0b       	sbc	r19, r31
     fac:	28 17       	cp	r18, r24
     fae:	39 07       	cpc	r19, r25
     fb0:	78 f0       	brcs	.+30     	; 0xfd0 <malloc+0x11e>
     fb2:	ac 01       	movw	r20, r24
     fb4:	4e 5f       	subi	r20, 0xFE	; 254
     fb6:	5f 4f       	sbci	r21, 0xFF	; 255
     fb8:	24 17       	cp	r18, r20
     fba:	35 07       	cpc	r19, r21
     fbc:	48 f0       	brcs	.+18     	; 0xfd0 <malloc+0x11e>
     fbe:	4e 0f       	add	r20, r30
     fc0:	5f 1f       	adc	r21, r31
     fc2:	50 93 7c 03 	sts	0x037C, r21
     fc6:	40 93 7b 03 	sts	0x037B, r20
     fca:	81 93       	st	Z+, r24
     fcc:	91 93       	st	Z+, r25
     fce:	02 c0       	rjmp	.+4      	; 0xfd4 <malloc+0x122>
     fd0:	e0 e0       	ldi	r30, 0x00	; 0
     fd2:	f0 e0       	ldi	r31, 0x00	; 0
     fd4:	cf 01       	movw	r24, r30
     fd6:	df 91       	pop	r29
     fd8:	cf 91       	pop	r28
     fda:	08 95       	ret

00000fdc <free>:
     fdc:	0f 93       	push	r16
     fde:	1f 93       	push	r17
     fe0:	cf 93       	push	r28
     fe2:	df 93       	push	r29
     fe4:	00 97       	sbiw	r24, 0x00	; 0
     fe6:	09 f4       	brne	.+2      	; 0xfea <free+0xe>
     fe8:	8c c0       	rjmp	.+280    	; 0x1102 <free+0x126>
     fea:	fc 01       	movw	r30, r24
     fec:	32 97       	sbiw	r30, 0x02	; 2
     fee:	13 82       	std	Z+3, r1	; 0x03
     ff0:	12 82       	std	Z+2, r1	; 0x02
     ff2:	00 91 7d 03 	lds	r16, 0x037D
     ff6:	10 91 7e 03 	lds	r17, 0x037E
     ffa:	01 15       	cp	r16, r1
     ffc:	11 05       	cpc	r17, r1
     ffe:	81 f4       	brne	.+32     	; 0x1020 <free+0x44>
    1000:	20 81       	ld	r18, Z
    1002:	31 81       	ldd	r19, Z+1	; 0x01
    1004:	82 0f       	add	r24, r18
    1006:	93 1f       	adc	r25, r19
    1008:	20 91 7b 03 	lds	r18, 0x037B
    100c:	30 91 7c 03 	lds	r19, 0x037C
    1010:	28 17       	cp	r18, r24
    1012:	39 07       	cpc	r19, r25
    1014:	79 f5       	brne	.+94     	; 0x1074 <free+0x98>
    1016:	f0 93 7c 03 	sts	0x037C, r31
    101a:	e0 93 7b 03 	sts	0x037B, r30
    101e:	71 c0       	rjmp	.+226    	; 0x1102 <free+0x126>
    1020:	d8 01       	movw	r26, r16
    1022:	40 e0       	ldi	r20, 0x00	; 0
    1024:	50 e0       	ldi	r21, 0x00	; 0
    1026:	ae 17       	cp	r26, r30
    1028:	bf 07       	cpc	r27, r31
    102a:	50 f4       	brcc	.+20     	; 0x1040 <free+0x64>
    102c:	12 96       	adiw	r26, 0x02	; 2
    102e:	2d 91       	ld	r18, X+
    1030:	3c 91       	ld	r19, X
    1032:	13 97       	sbiw	r26, 0x03	; 3
    1034:	ad 01       	movw	r20, r26
    1036:	21 15       	cp	r18, r1
    1038:	31 05       	cpc	r19, r1
    103a:	09 f1       	breq	.+66     	; 0x107e <free+0xa2>
    103c:	d9 01       	movw	r26, r18
    103e:	f3 cf       	rjmp	.-26     	; 0x1026 <free+0x4a>
    1040:	9d 01       	movw	r18, r26
    1042:	da 01       	movw	r26, r20
    1044:	33 83       	std	Z+3, r19	; 0x03
    1046:	22 83       	std	Z+2, r18	; 0x02
    1048:	60 81       	ld	r22, Z
    104a:	71 81       	ldd	r23, Z+1	; 0x01
    104c:	86 0f       	add	r24, r22
    104e:	97 1f       	adc	r25, r23
    1050:	82 17       	cp	r24, r18
    1052:	93 07       	cpc	r25, r19
    1054:	69 f4       	brne	.+26     	; 0x1070 <free+0x94>
    1056:	ec 01       	movw	r28, r24
    1058:	28 81       	ld	r18, Y
    105a:	39 81       	ldd	r19, Y+1	; 0x01
    105c:	26 0f       	add	r18, r22
    105e:	37 1f       	adc	r19, r23
    1060:	2e 5f       	subi	r18, 0xFE	; 254
    1062:	3f 4f       	sbci	r19, 0xFF	; 255
    1064:	31 83       	std	Z+1, r19	; 0x01
    1066:	20 83       	st	Z, r18
    1068:	8a 81       	ldd	r24, Y+2	; 0x02
    106a:	9b 81       	ldd	r25, Y+3	; 0x03
    106c:	93 83       	std	Z+3, r25	; 0x03
    106e:	82 83       	std	Z+2, r24	; 0x02
    1070:	45 2b       	or	r20, r21
    1072:	29 f4       	brne	.+10     	; 0x107e <free+0xa2>
    1074:	f0 93 7e 03 	sts	0x037E, r31
    1078:	e0 93 7d 03 	sts	0x037D, r30
    107c:	42 c0       	rjmp	.+132    	; 0x1102 <free+0x126>
    107e:	13 96       	adiw	r26, 0x03	; 3
    1080:	fc 93       	st	X, r31
    1082:	ee 93       	st	-X, r30
    1084:	12 97       	sbiw	r26, 0x02	; 2
    1086:	ed 01       	movw	r28, r26
    1088:	49 91       	ld	r20, Y+
    108a:	59 91       	ld	r21, Y+
    108c:	9e 01       	movw	r18, r28
    108e:	24 0f       	add	r18, r20
    1090:	35 1f       	adc	r19, r21
    1092:	e2 17       	cp	r30, r18
    1094:	f3 07       	cpc	r31, r19
    1096:	71 f4       	brne	.+28     	; 0x10b4 <free+0xd8>
    1098:	80 81       	ld	r24, Z
    109a:	91 81       	ldd	r25, Z+1	; 0x01
    109c:	84 0f       	add	r24, r20
    109e:	95 1f       	adc	r25, r21
    10a0:	02 96       	adiw	r24, 0x02	; 2
    10a2:	11 96       	adiw	r26, 0x01	; 1
    10a4:	9c 93       	st	X, r25
    10a6:	8e 93       	st	-X, r24
    10a8:	82 81       	ldd	r24, Z+2	; 0x02
    10aa:	93 81       	ldd	r25, Z+3	; 0x03
    10ac:	13 96       	adiw	r26, 0x03	; 3
    10ae:	9c 93       	st	X, r25
    10b0:	8e 93       	st	-X, r24
    10b2:	12 97       	sbiw	r26, 0x02	; 2
    10b4:	e0 e0       	ldi	r30, 0x00	; 0
    10b6:	f0 e0       	ldi	r31, 0x00	; 0
    10b8:	d8 01       	movw	r26, r16
    10ba:	12 96       	adiw	r26, 0x02	; 2
    10bc:	8d 91       	ld	r24, X+
    10be:	9c 91       	ld	r25, X
    10c0:	13 97       	sbiw	r26, 0x03	; 3
    10c2:	00 97       	sbiw	r24, 0x00	; 0
    10c4:	19 f0       	breq	.+6      	; 0x10cc <free+0xf0>
    10c6:	f8 01       	movw	r30, r16
    10c8:	8c 01       	movw	r16, r24
    10ca:	f6 cf       	rjmp	.-20     	; 0x10b8 <free+0xdc>
    10cc:	8d 91       	ld	r24, X+
    10ce:	9c 91       	ld	r25, X
    10d0:	98 01       	movw	r18, r16
    10d2:	2e 5f       	subi	r18, 0xFE	; 254
    10d4:	3f 4f       	sbci	r19, 0xFF	; 255
    10d6:	82 0f       	add	r24, r18
    10d8:	93 1f       	adc	r25, r19
    10da:	20 91 7b 03 	lds	r18, 0x037B
    10de:	30 91 7c 03 	lds	r19, 0x037C
    10e2:	28 17       	cp	r18, r24
    10e4:	39 07       	cpc	r19, r25
    10e6:	69 f4       	brne	.+26     	; 0x1102 <free+0x126>
    10e8:	30 97       	sbiw	r30, 0x00	; 0
    10ea:	29 f4       	brne	.+10     	; 0x10f6 <free+0x11a>
    10ec:	10 92 7e 03 	sts	0x037E, r1
    10f0:	10 92 7d 03 	sts	0x037D, r1
    10f4:	02 c0       	rjmp	.+4      	; 0x10fa <free+0x11e>
    10f6:	13 82       	std	Z+3, r1	; 0x03
    10f8:	12 82       	std	Z+2, r1	; 0x02
    10fa:	10 93 7c 03 	sts	0x037C, r17
    10fe:	00 93 7b 03 	sts	0x037B, r16
    1102:	df 91       	pop	r29
    1104:	cf 91       	pop	r28
    1106:	1f 91       	pop	r17
    1108:	0f 91       	pop	r16
    110a:	08 95       	ret

0000110c <strnlen_P>:
    110c:	fc 01       	movw	r30, r24
    110e:	05 90       	lpm	r0, Z+
    1110:	61 50       	subi	r22, 0x01	; 1
    1112:	70 40       	sbci	r23, 0x00	; 0
    1114:	01 10       	cpse	r0, r1
    1116:	d8 f7       	brcc	.-10     	; 0x110e <strnlen_P+0x2>
    1118:	80 95       	com	r24
    111a:	90 95       	com	r25
    111c:	8e 0f       	add	r24, r30
    111e:	9f 1f       	adc	r25, r31
    1120:	08 95       	ret

00001122 <memset>:
    1122:	dc 01       	movw	r26, r24
    1124:	01 c0       	rjmp	.+2      	; 0x1128 <memset+0x6>
    1126:	6d 93       	st	X+, r22
    1128:	41 50       	subi	r20, 0x01	; 1
    112a:	50 40       	sbci	r21, 0x00	; 0
    112c:	e0 f7       	brcc	.-8      	; 0x1126 <memset+0x4>
    112e:	08 95       	ret

00001130 <strnlen>:
    1130:	fc 01       	movw	r30, r24
    1132:	61 50       	subi	r22, 0x01	; 1
    1134:	70 40       	sbci	r23, 0x00	; 0
    1136:	01 90       	ld	r0, Z+
    1138:	01 10       	cpse	r0, r1
    113a:	d8 f7       	brcc	.-10     	; 0x1132 <strnlen+0x2>
    113c:	80 95       	com	r24
    113e:	90 95       	com	r25
    1140:	8e 0f       	add	r24, r30
    1142:	9f 1f       	adc	r25, r31
    1144:	08 95       	ret

00001146 <fputc>:
    1146:	0f 93       	push	r16
    1148:	1f 93       	push	r17
    114a:	cf 93       	push	r28
    114c:	df 93       	push	r29
    114e:	fb 01       	movw	r30, r22
    1150:	23 81       	ldd	r18, Z+3	; 0x03
    1152:	21 fd       	sbrc	r18, 1
    1154:	03 c0       	rjmp	.+6      	; 0x115c <fputc+0x16>
    1156:	8f ef       	ldi	r24, 0xFF	; 255
    1158:	9f ef       	ldi	r25, 0xFF	; 255
    115a:	28 c0       	rjmp	.+80     	; 0x11ac <fputc+0x66>
    115c:	22 ff       	sbrs	r18, 2
    115e:	16 c0       	rjmp	.+44     	; 0x118c <fputc+0x46>
    1160:	46 81       	ldd	r20, Z+6	; 0x06
    1162:	57 81       	ldd	r21, Z+7	; 0x07
    1164:	24 81       	ldd	r18, Z+4	; 0x04
    1166:	35 81       	ldd	r19, Z+5	; 0x05
    1168:	42 17       	cp	r20, r18
    116a:	53 07       	cpc	r21, r19
    116c:	44 f4       	brge	.+16     	; 0x117e <fputc+0x38>
    116e:	a0 81       	ld	r26, Z
    1170:	b1 81       	ldd	r27, Z+1	; 0x01
    1172:	9d 01       	movw	r18, r26
    1174:	2f 5f       	subi	r18, 0xFF	; 255
    1176:	3f 4f       	sbci	r19, 0xFF	; 255
    1178:	31 83       	std	Z+1, r19	; 0x01
    117a:	20 83       	st	Z, r18
    117c:	8c 93       	st	X, r24
    117e:	26 81       	ldd	r18, Z+6	; 0x06
    1180:	37 81       	ldd	r19, Z+7	; 0x07
    1182:	2f 5f       	subi	r18, 0xFF	; 255
    1184:	3f 4f       	sbci	r19, 0xFF	; 255
    1186:	37 83       	std	Z+7, r19	; 0x07
    1188:	26 83       	std	Z+6, r18	; 0x06
    118a:	10 c0       	rjmp	.+32     	; 0x11ac <fputc+0x66>
    118c:	eb 01       	movw	r28, r22
    118e:	09 2f       	mov	r16, r25
    1190:	18 2f       	mov	r17, r24
    1192:	00 84       	ldd	r0, Z+8	; 0x08
    1194:	f1 85       	ldd	r31, Z+9	; 0x09
    1196:	e0 2d       	mov	r30, r0
    1198:	09 95       	icall
    119a:	89 2b       	or	r24, r25
    119c:	e1 f6       	brne	.-72     	; 0x1156 <fputc+0x10>
    119e:	8e 81       	ldd	r24, Y+6	; 0x06
    11a0:	9f 81       	ldd	r25, Y+7	; 0x07
    11a2:	01 96       	adiw	r24, 0x01	; 1
    11a4:	9f 83       	std	Y+7, r25	; 0x07
    11a6:	8e 83       	std	Y+6, r24	; 0x06
    11a8:	81 2f       	mov	r24, r17
    11aa:	90 2f       	mov	r25, r16
    11ac:	df 91       	pop	r29
    11ae:	cf 91       	pop	r28
    11b0:	1f 91       	pop	r17
    11b2:	0f 91       	pop	r16
    11b4:	08 95       	ret

000011b6 <__ultoa_invert>:
    11b6:	fa 01       	movw	r30, r20
    11b8:	aa 27       	eor	r26, r26
    11ba:	28 30       	cpi	r18, 0x08	; 8
    11bc:	51 f1       	breq	.+84     	; 0x1212 <__ultoa_invert+0x5c>
    11be:	20 31       	cpi	r18, 0x10	; 16
    11c0:	81 f1       	breq	.+96     	; 0x1222 <__ultoa_invert+0x6c>
    11c2:	e8 94       	clt
    11c4:	6f 93       	push	r22
    11c6:	6e 7f       	andi	r22, 0xFE	; 254
    11c8:	6e 5f       	subi	r22, 0xFE	; 254
    11ca:	7f 4f       	sbci	r23, 0xFF	; 255
    11cc:	8f 4f       	sbci	r24, 0xFF	; 255
    11ce:	9f 4f       	sbci	r25, 0xFF	; 255
    11d0:	af 4f       	sbci	r26, 0xFF	; 255
    11d2:	b1 e0       	ldi	r27, 0x01	; 1
    11d4:	3e d0       	rcall	.+124    	; 0x1252 <__ultoa_invert+0x9c>
    11d6:	b4 e0       	ldi	r27, 0x04	; 4
    11d8:	3c d0       	rcall	.+120    	; 0x1252 <__ultoa_invert+0x9c>
    11da:	67 0f       	add	r22, r23
    11dc:	78 1f       	adc	r23, r24
    11de:	89 1f       	adc	r24, r25
    11e0:	9a 1f       	adc	r25, r26
    11e2:	a1 1d       	adc	r26, r1
    11e4:	68 0f       	add	r22, r24
    11e6:	79 1f       	adc	r23, r25
    11e8:	8a 1f       	adc	r24, r26
    11ea:	91 1d       	adc	r25, r1
    11ec:	a1 1d       	adc	r26, r1
    11ee:	6a 0f       	add	r22, r26
    11f0:	71 1d       	adc	r23, r1
    11f2:	81 1d       	adc	r24, r1
    11f4:	91 1d       	adc	r25, r1
    11f6:	a1 1d       	adc	r26, r1
    11f8:	20 d0       	rcall	.+64     	; 0x123a <__ultoa_invert+0x84>
    11fa:	09 f4       	brne	.+2      	; 0x11fe <__ultoa_invert+0x48>
    11fc:	68 94       	set
    11fe:	3f 91       	pop	r19
    1200:	2a e0       	ldi	r18, 0x0A	; 10
    1202:	26 9f       	mul	r18, r22
    1204:	11 24       	eor	r1, r1
    1206:	30 19       	sub	r19, r0
    1208:	30 5d       	subi	r19, 0xD0	; 208
    120a:	31 93       	st	Z+, r19
    120c:	de f6       	brtc	.-74     	; 0x11c4 <__ultoa_invert+0xe>
    120e:	cf 01       	movw	r24, r30
    1210:	08 95       	ret
    1212:	46 2f       	mov	r20, r22
    1214:	47 70       	andi	r20, 0x07	; 7
    1216:	40 5d       	subi	r20, 0xD0	; 208
    1218:	41 93       	st	Z+, r20
    121a:	b3 e0       	ldi	r27, 0x03	; 3
    121c:	0f d0       	rcall	.+30     	; 0x123c <__ultoa_invert+0x86>
    121e:	c9 f7       	brne	.-14     	; 0x1212 <__ultoa_invert+0x5c>
    1220:	f6 cf       	rjmp	.-20     	; 0x120e <__ultoa_invert+0x58>
    1222:	46 2f       	mov	r20, r22
    1224:	4f 70       	andi	r20, 0x0F	; 15
    1226:	40 5d       	subi	r20, 0xD0	; 208
    1228:	4a 33       	cpi	r20, 0x3A	; 58
    122a:	18 f0       	brcs	.+6      	; 0x1232 <__ultoa_invert+0x7c>
    122c:	49 5d       	subi	r20, 0xD9	; 217
    122e:	31 fd       	sbrc	r19, 1
    1230:	40 52       	subi	r20, 0x20	; 32
    1232:	41 93       	st	Z+, r20
    1234:	02 d0       	rcall	.+4      	; 0x123a <__ultoa_invert+0x84>
    1236:	a9 f7       	brne	.-22     	; 0x1222 <__ultoa_invert+0x6c>
    1238:	ea cf       	rjmp	.-44     	; 0x120e <__ultoa_invert+0x58>
    123a:	b4 e0       	ldi	r27, 0x04	; 4
    123c:	a6 95       	lsr	r26
    123e:	97 95       	ror	r25
    1240:	87 95       	ror	r24
    1242:	77 95       	ror	r23
    1244:	67 95       	ror	r22
    1246:	ba 95       	dec	r27
    1248:	c9 f7       	brne	.-14     	; 0x123c <__ultoa_invert+0x86>
    124a:	00 97       	sbiw	r24, 0x00	; 0
    124c:	61 05       	cpc	r22, r1
    124e:	71 05       	cpc	r23, r1
    1250:	08 95       	ret
    1252:	9b 01       	movw	r18, r22
    1254:	ac 01       	movw	r20, r24
    1256:	0a 2e       	mov	r0, r26
    1258:	06 94       	lsr	r0
    125a:	57 95       	ror	r21
    125c:	47 95       	ror	r20
    125e:	37 95       	ror	r19
    1260:	27 95       	ror	r18
    1262:	ba 95       	dec	r27
    1264:	c9 f7       	brne	.-14     	; 0x1258 <__ultoa_invert+0xa2>
    1266:	62 0f       	add	r22, r18
    1268:	73 1f       	adc	r23, r19
    126a:	84 1f       	adc	r24, r20
    126c:	95 1f       	adc	r25, r21
    126e:	a0 1d       	adc	r26, r0
    1270:	08 95       	ret

00001272 <__prologue_saves__>:
    1272:	2f 92       	push	r2
    1274:	3f 92       	push	r3
    1276:	4f 92       	push	r4
    1278:	5f 92       	push	r5
    127a:	6f 92       	push	r6
    127c:	7f 92       	push	r7
    127e:	8f 92       	push	r8
    1280:	9f 92       	push	r9
    1282:	af 92       	push	r10
    1284:	bf 92       	push	r11
    1286:	cf 92       	push	r12
    1288:	df 92       	push	r13
    128a:	ef 92       	push	r14
    128c:	ff 92       	push	r15
    128e:	0f 93       	push	r16
    1290:	1f 93       	push	r17
    1292:	cf 93       	push	r28
    1294:	df 93       	push	r29
    1296:	cd b7       	in	r28, 0x3d	; 61
    1298:	de b7       	in	r29, 0x3e	; 62
    129a:	ca 1b       	sub	r28, r26
    129c:	db 0b       	sbc	r29, r27
    129e:	0f b6       	in	r0, 0x3f	; 63
    12a0:	f8 94       	cli
    12a2:	de bf       	out	0x3e, r29	; 62
    12a4:	0f be       	out	0x3f, r0	; 63
    12a6:	cd bf       	out	0x3d, r28	; 61
    12a8:	09 94       	ijmp

000012aa <__epilogue_restores__>:
    12aa:	2a 88       	ldd	r2, Y+18	; 0x12
    12ac:	39 88       	ldd	r3, Y+17	; 0x11
    12ae:	48 88       	ldd	r4, Y+16	; 0x10
    12b0:	5f 84       	ldd	r5, Y+15	; 0x0f
    12b2:	6e 84       	ldd	r6, Y+14	; 0x0e
    12b4:	7d 84       	ldd	r7, Y+13	; 0x0d
    12b6:	8c 84       	ldd	r8, Y+12	; 0x0c
    12b8:	9b 84       	ldd	r9, Y+11	; 0x0b
    12ba:	aa 84       	ldd	r10, Y+10	; 0x0a
    12bc:	b9 84       	ldd	r11, Y+9	; 0x09
    12be:	c8 84       	ldd	r12, Y+8	; 0x08
    12c0:	df 80       	ldd	r13, Y+7	; 0x07
    12c2:	ee 80       	ldd	r14, Y+6	; 0x06
    12c4:	fd 80       	ldd	r15, Y+5	; 0x05
    12c6:	0c 81       	ldd	r16, Y+4	; 0x04
    12c8:	1b 81       	ldd	r17, Y+3	; 0x03
    12ca:	aa 81       	ldd	r26, Y+2	; 0x02
    12cc:	b9 81       	ldd	r27, Y+1	; 0x01
    12ce:	ce 0f       	add	r28, r30
    12d0:	d1 1d       	adc	r29, r1
    12d2:	0f b6       	in	r0, 0x3f	; 63
    12d4:	f8 94       	cli
    12d6:	de bf       	out	0x3e, r29	; 62
    12d8:	0f be       	out	0x3f, r0	; 63
    12da:	cd bf       	out	0x3d, r28	; 61
    12dc:	ed 01       	movw	r28, r26
    12de:	08 95       	ret

000012e0 <_exit>:
    12e0:	f8 94       	cli

000012e2 <__stop_program>:
    12e2:	ff cf       	rjmp	.-2      	; 0x12e2 <__stop_program>
